

Microchip Technology PIC LITE Macro Assembler V1.35 build -356382666 
                                                                                               Thu Dec 10 09:26:51 2015

Microchip Technology Omniscient Code Generator v1.35 (Free mode) build 201507080246
     1                           	processor	16F1503
     2                           	opt	pw 120
     3                           	opt	lm
     4                           	psect	stringtext,global,class=STRCODE,delta=2
     5                           	psect	nvCOMMON,global,class=COMMON,space=1,delta=1
     6                           	psect	nvBANK0,global,class=BANK0,space=1,delta=1
     7                           	psect	cinit,global,class=CODE,merge=1,delta=2
     8                           	psect	bssBANK0,global,class=BANK0,space=1,delta=1
     9                           	psect	clrtext,global,class=CODE,delta=2
    10                           	psect	cstackCOMMON,global,class=COMMON,space=1,delta=1
    11                           	psect	cstackBANK0,global,class=BANK0,space=1,delta=1
    12                           	psect	maintext,global,class=CODE,merge=1,split=1,delta=2
    13                           	psect	text1,local,class=CODE,merge=1,delta=2
    14                           	psect	text2,local,class=CODE,merge=1,delta=2
    15                           	psect	text3,local,class=CODE,merge=1,delta=2
    16                           	psect	text4,local,class=CODE,merge=1,delta=2
    17                           	psect	text5,local,class=CODE,merge=1,delta=2
    18                           	psect	text6,local,class=CODE,merge=1,delta=2
    19                           	psect	text7,local,class=CODE,merge=1,delta=2
    20                           	psect	text8,local,class=CODE,merge=1,delta=2
    21                           	psect	text9,local,class=CODE,merge=1,delta=2
    22                           	psect	text10,local,class=CODE,merge=1,delta=2
    23                           	psect	text11,local,class=CODE,merge=1,delta=2
    24                           	psect	text12,local,class=CODE,merge=1,delta=2
    25                           	psect	text13,local,class=CODE,merge=1,delta=2
    26                           	psect	text14,local,class=CODE,merge=1,delta=2
    27                           	psect	text15,local,class=CODE,merge=1,delta=2
    28                           	psect	text16,local,class=CODE,merge=1,delta=2
    29                           	psect	text17,local,class=CODE,merge=1,delta=2
    30                           	psect	text18,local,class=CODE,merge=1,delta=2
    31                           	psect	text19,local,class=CODE,merge=1,delta=2
    32                           	psect	intentry,global,class=CODE,delta=2
    33                           	psect	text21,local,class=CODE,merge=1,delta=2
    34                           	psect	text22,local,class=CODE,merge=1,delta=2
    35                           	psect	text23,local,class=CODE,merge=1,delta=2
    36                           	psect	text24,local,class=CODE,merge=1,delta=2
    37                           	dabs	1,0x7E,2
    38  0000                     	;# 
    39  0001                     	;# 
    40  0002                     	;# 
    41  0003                     	;# 
    42  0004                     	;# 
    43  0005                     	;# 
    44  0006                     	;# 
    45  0007                     	;# 
    46  0008                     	;# 
    47  0009                     	;# 
    48  000A                     	;# 
    49  000B                     	;# 
    50  000C                     	;# 
    51  000E                     	;# 
    52  0011                     	;# 
    53  0012                     	;# 
    54  0013                     	;# 
    55  0015                     	;# 
    56  0016                     	;# 
    57  0016                     	;# 
    58  0017                     	;# 
    59  0018                     	;# 
    60  0019                     	;# 
    61  001A                     	;# 
    62  001B                     	;# 
    63  001C                     	;# 
    64  008C                     	;# 
    65  008E                     	;# 
    66  0091                     	;# 
    67  0092                     	;# 
    68  0093                     	;# 
    69  0095                     	;# 
    70  0096                     	;# 
    71  0097                     	;# 
    72  0099                     	;# 
    73  009A                     	;# 
    74  009B                     	;# 
    75  009B                     	;# 
    76  009C                     	;# 
    77  009D                     	;# 
    78  009E                     	;# 
    79  009F                     	;# 
    80  010C                     	;# 
    81  010E                     	;# 
    82  0111                     	;# 
    83  0112                     	;# 
    84  0113                     	;# 
    85  0114                     	;# 
    86  0115                     	;# 
    87  0116                     	;# 
    88  0117                     	;# 
    89  0118                     	;# 
    90  0119                     	;# 
    91  011D                     	;# 
    92  018C                     	;# 
    93  018E                     	;# 
    94  0191                     	;# 
    95  0191                     	;# 
    96  0192                     	;# 
    97  0193                     	;# 
    98  0193                     	;# 
    99  0194                     	;# 
   100  0195                     	;# 
   101  0196                     	;# 
   102  0197                     	;# 
   103  020C                     	;# 
   104  0211                     	;# 
   105  0211                     	;# 
   106  0212                     	;# 
   107  0212                     	;# 
   108  0213                     	;# 
   109  0213                     	;# 
   110  0214                     	;# 
   111  0214                     	;# 
   112  0215                     	;# 
   113  0215                     	;# 
   114  0215                     	;# 
   115  0216                     	;# 
   116  0216                     	;# 
   117  0217                     	;# 
   118  0217                     	;# 
   119  0391                     	;# 
   120  0392                     	;# 
   121  0393                     	;# 
   122  0498                     	;# 
   123  0498                     	;# 
   124  0499                     	;# 
   125  049A                     	;# 
   126  049B                     	;# 
   127  049B                     	;# 
   128  049C                     	;# 
   129  049D                     	;# 
   130  049E                     	;# 
   131  049F                     	;# 
   132  0611                     	;# 
   133  0612                     	;# 
   134  0613                     	;# 
   135  0613                     	;# 
   136  0614                     	;# 
   137  0615                     	;# 
   138  0616                     	;# 
   139  0616                     	;# 
   140  0617                     	;# 
   141  0618                     	;# 
   142  0619                     	;# 
   143  0619                     	;# 
   144  061A                     	;# 
   145  061B                     	;# 
   146  061C                     	;# 
   147  061C                     	;# 
   148  0691                     	;# 
   149  0692                     	;# 
   150  0693                     	;# 
   151  0694                     	;# 
   152  0695                     	;# 
   153  0F0F                     	;# 
   154  0F10                     	;# 
   155  0F11                     	;# 
   156  0F12                     	;# 
   157  0F13                     	;# 
   158  0F14                     	;# 
   159  0F15                     	;# 
   160  0F16                     	;# 
   161  0F17                     	;# 
   162  0F18                     	;# 
   163  0F19                     	;# 
   164  0F1A                     	;# 
   165  0F1B                     	;# 
   166  0F1C                     	;# 
   167  0F1D                     	;# 
   168  0F1E                     	;# 
   169  0F1F                     	;# 
   170  0FE3                     	;# 
   171  0FE4                     	;# 
   172  0FE5                     	;# 
   173  0FE6                     	;# 
   174  0FE7                     	;# 
   175  0FE8                     	;# 
   176  0FE9                     	;# 
   177  0FEA                     	;# 
   178  0FEB                     	;# 
   179  0FED                     	;# 
   180  0FEE                     	;# 
   181  0FEF                     	;# 
   182  0000                     	;# 
   183  0001                     	;# 
   184  0002                     	;# 
   185  0003                     	;# 
   186  0004                     	;# 
   187  0005                     	;# 
   188  0006                     	;# 
   189  0007                     	;# 
   190  0008                     	;# 
   191  0009                     	;# 
   192  000A                     	;# 
   193  000B                     	;# 
   194  000C                     	;# 
   195  000E                     	;# 
   196  0011                     	;# 
   197  0012                     	;# 
   198  0013                     	;# 
   199  0015                     	;# 
   200  0016                     	;# 
   201  0016                     	;# 
   202  0017                     	;# 
   203  0018                     	;# 
   204  0019                     	;# 
   205  001A                     	;# 
   206  001B                     	;# 
   207  001C                     	;# 
   208  008C                     	;# 
   209  008E                     	;# 
   210  0091                     	;# 
   211  0092                     	;# 
   212  0093                     	;# 
   213  0095                     	;# 
   214  0096                     	;# 
   215  0097                     	;# 
   216  0099                     	;# 
   217  009A                     	;# 
   218  009B                     	;# 
   219  009B                     	;# 
   220  009C                     	;# 
   221  009D                     	;# 
   222  009E                     	;# 
   223  009F                     	;# 
   224  010C                     	;# 
   225  010E                     	;# 
   226  0111                     	;# 
   227  0112                     	;# 
   228  0113                     	;# 
   229  0114                     	;# 
   230  0115                     	;# 
   231  0116                     	;# 
   232  0117                     	;# 
   233  0118                     	;# 
   234  0119                     	;# 
   235  011D                     	;# 
   236  018C                     	;# 
   237  018E                     	;# 
   238  0191                     	;# 
   239  0191                     	;# 
   240  0192                     	;# 
   241  0193                     	;# 
   242  0193                     	;# 
   243  0194                     	;# 
   244  0195                     	;# 
   245  0196                     	;# 
   246  0197                     	;# 
   247  020C                     	;# 
   248  0211                     	;# 
   249  0211                     	;# 
   250  0212                     	;# 
   251  0212                     	;# 
   252  0213                     	;# 
   253  0213                     	;# 
   254  0214                     	;# 
   255  0214                     	;# 
   256  0215                     	;# 
   257  0215                     	;# 
   258  0215                     	;# 
   259  0216                     	;# 
   260  0216                     	;# 
   261  0217                     	;# 
   262  0217                     	;# 
   263  0391                     	;# 
   264  0392                     	;# 
   265  0393                     	;# 
   266  0498                     	;# 
   267  0498                     	;# 
   268  0499                     	;# 
   269  049A                     	;# 
   270  049B                     	;# 
   271  049B                     	;# 
   272  049C                     	;# 
   273  049D                     	;# 
   274  049E                     	;# 
   275  049F                     	;# 
   276  0611                     	;# 
   277  0612                     	;# 
   278  0613                     	;# 
   279  0613                     	;# 
   280  0614                     	;# 
   281  0615                     	;# 
   282  0616                     	;# 
   283  0616                     	;# 
   284  0617                     	;# 
   285  0618                     	;# 
   286  0619                     	;# 
   287  0619                     	;# 
   288  061A                     	;# 
   289  061B                     	;# 
   290  061C                     	;# 
   291  061C                     	;# 
   292  0691                     	;# 
   293  0692                     	;# 
   294  0693                     	;# 
   295  0694                     	;# 
   296  0695                     	;# 
   297  0F0F                     	;# 
   298  0F10                     	;# 
   299  0F11                     	;# 
   300  0F12                     	;# 
   301  0F13                     	;# 
   302  0F14                     	;# 
   303  0F15                     	;# 
   304  0F16                     	;# 
   305  0F17                     	;# 
   306  0F18                     	;# 
   307  0F19                     	;# 
   308  0F1A                     	;# 
   309  0F1B                     	;# 
   310  0F1C                     	;# 
   311  0F1D                     	;# 
   312  0F1E                     	;# 
   313  0F1F                     	;# 
   314  0FE3                     	;# 
   315  0FE4                     	;# 
   316  0FE5                     	;# 
   317  0FE6                     	;# 
   318  0FE7                     	;# 
   319  0FE8                     	;# 
   320  0FE9                     	;# 
   321  0FEA                     	;# 
   322  0FEB                     	;# 
   323  0FED                     	;# 
   324  0FEE                     	;# 
   325  0FEF                     	;# 
   326  0000                     	;# 
   327  0001                     	;# 
   328  0002                     	;# 
   329  0003                     	;# 
   330  0004                     	;# 
   331  0005                     	;# 
   332  0006                     	;# 
   333  0007                     	;# 
   334  0008                     	;# 
   335  0009                     	;# 
   336  000A                     	;# 
   337  000B                     	;# 
   338  000C                     	;# 
   339  000E                     	;# 
   340  0011                     	;# 
   341  0012                     	;# 
   342  0013                     	;# 
   343  0015                     	;# 
   344  0016                     	;# 
   345  0016                     	;# 
   346  0017                     	;# 
   347  0018                     	;# 
   348  0019                     	;# 
   349  001A                     	;# 
   350  001B                     	;# 
   351  001C                     	;# 
   352  008C                     	;# 
   353  008E                     	;# 
   354  0091                     	;# 
   355  0092                     	;# 
   356  0093                     	;# 
   357  0095                     	;# 
   358  0096                     	;# 
   359  0097                     	;# 
   360  0099                     	;# 
   361  009A                     	;# 
   362  009B                     	;# 
   363  009B                     	;# 
   364  009C                     	;# 
   365  009D                     	;# 
   366  009E                     	;# 
   367  009F                     	;# 
   368  010C                     	;# 
   369  010E                     	;# 
   370  0111                     	;# 
   371  0112                     	;# 
   372  0113                     	;# 
   373  0114                     	;# 
   374  0115                     	;# 
   375  0116                     	;# 
   376  0117                     	;# 
   377  0118                     	;# 
   378  0119                     	;# 
   379  011D                     	;# 
   380  018C                     	;# 
   381  018E                     	;# 
   382  0191                     	;# 
   383  0191                     	;# 
   384  0192                     	;# 
   385  0193                     	;# 
   386  0193                     	;# 
   387  0194                     	;# 
   388  0195                     	;# 
   389  0196                     	;# 
   390  0197                     	;# 
   391  020C                     	;# 
   392  0211                     	;# 
   393  0211                     	;# 
   394  0212                     	;# 
   395  0212                     	;# 
   396  0213                     	;# 
   397  0213                     	;# 
   398  0214                     	;# 
   399  0214                     	;# 
   400  0215                     	;# 
   401  0215                     	;# 
   402  0215                     	;# 
   403  0216                     	;# 
   404  0216                     	;# 
   405  0217                     	;# 
   406  0217                     	;# 
   407  0391                     	;# 
   408  0392                     	;# 
   409  0393                     	;# 
   410  0498                     	;# 
   411  0498                     	;# 
   412  0499                     	;# 
   413  049A                     	;# 
   414  049B                     	;# 
   415  049B                     	;# 
   416  049C                     	;# 
   417  049D                     	;# 
   418  049E                     	;# 
   419  049F                     	;# 
   420  0611                     	;# 
   421  0612                     	;# 
   422  0613                     	;# 
   423  0613                     	;# 
   424  0614                     	;# 
   425  0615                     	;# 
   426  0616                     	;# 
   427  0616                     	;# 
   428  0617                     	;# 
   429  0618                     	;# 
   430  0619                     	;# 
   431  0619                     	;# 
   432  061A                     	;# 
   433  061B                     	;# 
   434  061C                     	;# 
   435  061C                     	;# 
   436  0691                     	;# 
   437  0692                     	;# 
   438  0693                     	;# 
   439  0694                     	;# 
   440  0695                     	;# 
   441  0F0F                     	;# 
   442  0F10                     	;# 
   443  0F11                     	;# 
   444  0F12                     	;# 
   445  0F13                     	;# 
   446  0F14                     	;# 
   447  0F15                     	;# 
   448  0F16                     	;# 
   449  0F17                     	;# 
   450  0F18                     	;# 
   451  0F19                     	;# 
   452  0F1A                     	;# 
   453  0F1B                     	;# 
   454  0F1C                     	;# 
   455  0F1D                     	;# 
   456  0F1E                     	;# 
   457  0F1F                     	;# 
   458  0FE3                     	;# 
   459  0FE4                     	;# 
   460  0FE5                     	;# 
   461  0FE6                     	;# 
   462  0FE7                     	;# 
   463  0FE8                     	;# 
   464  0FE9                     	;# 
   465  0FEA                     	;# 
   466  0FEB                     	;# 
   467  0FED                     	;# 
   468  0FEE                     	;# 
   469  0FEF                     	;# 
   470  0000                     	;# 
   471  0001                     	;# 
   472  0002                     	;# 
   473  0003                     	;# 
   474  0004                     	;# 
   475  0005                     	;# 
   476  0006                     	;# 
   477  0007                     	;# 
   478  0008                     	;# 
   479  0009                     	;# 
   480  000A                     	;# 
   481  000B                     	;# 
   482  000C                     	;# 
   483  000E                     	;# 
   484  0011                     	;# 
   485  0012                     	;# 
   486  0013                     	;# 
   487  0015                     	;# 
   488  0016                     	;# 
   489  0016                     	;# 
   490  0017                     	;# 
   491  0018                     	;# 
   492  0019                     	;# 
   493  001A                     	;# 
   494  001B                     	;# 
   495  001C                     	;# 
   496  008C                     	;# 
   497  008E                     	;# 
   498  0091                     	;# 
   499  0092                     	;# 
   500  0093                     	;# 
   501  0095                     	;# 
   502  0096                     	;# 
   503  0097                     	;# 
   504  0099                     	;# 
   505  009A                     	;# 
   506  009B                     	;# 
   507  009B                     	;# 
   508  009C                     	;# 
   509  009D                     	;# 
   510  009E                     	;# 
   511  009F                     	;# 
   512  010C                     	;# 
   513  010E                     	;# 
   514  0111                     	;# 
   515  0112                     	;# 
   516  0113                     	;# 
   517  0114                     	;# 
   518  0115                     	;# 
   519  0116                     	;# 
   520  0117                     	;# 
   521  0118                     	;# 
   522  0119                     	;# 
   523  011D                     	;# 
   524  018C                     	;# 
   525  018E                     	;# 
   526  0191                     	;# 
   527  0191                     	;# 
   528  0192                     	;# 
   529  0193                     	;# 
   530  0193                     	;# 
   531  0194                     	;# 
   532  0195                     	;# 
   533  0196                     	;# 
   534  0197                     	;# 
   535  020C                     	;# 
   536  0211                     	;# 
   537  0211                     	;# 
   538  0212                     	;# 
   539  0212                     	;# 
   540  0213                     	;# 
   541  0213                     	;# 
   542  0214                     	;# 
   543  0214                     	;# 
   544  0215                     	;# 
   545  0215                     	;# 
   546  0215                     	;# 
   547  0216                     	;# 
   548  0216                     	;# 
   549  0217                     	;# 
   550  0217                     	;# 
   551  0391                     	;# 
   552  0392                     	;# 
   553  0393                     	;# 
   554  0498                     	;# 
   555  0498                     	;# 
   556  0499                     	;# 
   557  049A                     	;# 
   558  049B                     	;# 
   559  049B                     	;# 
   560  049C                     	;# 
   561  049D                     	;# 
   562  049E                     	;# 
   563  049F                     	;# 
   564  0611                     	;# 
   565  0612                     	;# 
   566  0613                     	;# 
   567  0613                     	;# 
   568  0614                     	;# 
   569  0615                     	;# 
   570  0616                     	;# 
   571  0616                     	;# 
   572  0617                     	;# 
   573  0618                     	;# 
   574  0619                     	;# 
   575  0619                     	;# 
   576  061A                     	;# 
   577  061B                     	;# 
   578  061C                     	;# 
   579  061C                     	;# 
   580  0691                     	;# 
   581  0692                     	;# 
   582  0693                     	;# 
   583  0694                     	;# 
   584  0695                     	;# 
   585  0F0F                     	;# 
   586  0F10                     	;# 
   587  0F11                     	;# 
   588  0F12                     	;# 
   589  0F13                     	;# 
   590  0F14                     	;# 
   591  0F15                     	;# 
   592  0F16                     	;# 
   593  0F17                     	;# 
   594  0F18                     	;# 
   595  0F19                     	;# 
   596  0F1A                     	;# 
   597  0F1B                     	;# 
   598  0F1C                     	;# 
   599  0F1D                     	;# 
   600  0F1E                     	;# 
   601  0F1F                     	;# 
   602  0FE3                     	;# 
   603  0FE4                     	;# 
   604  0FE5                     	;# 
   605  0FE6                     	;# 
   606  0FE7                     	;# 
   607  0FE8                     	;# 
   608  0FE9                     	;# 
   609  0FEA                     	;# 
   610  0FEB                     	;# 
   611  0FED                     	;# 
   612  0FEE                     	;# 
   613  0FEF                     	;# 
   614  0000                     	;# 
   615  0001                     	;# 
   616  0002                     	;# 
   617  0003                     	;# 
   618  0004                     	;# 
   619  0005                     	;# 
   620  0006                     	;# 
   621  0007                     	;# 
   622  0008                     	;# 
   623  0009                     	;# 
   624  000A                     	;# 
   625  000B                     	;# 
   626  000C                     	;# 
   627  000E                     	;# 
   628  0011                     	;# 
   629  0012                     	;# 
   630  0013                     	;# 
   631  0015                     	;# 
   632  0016                     	;# 
   633  0016                     	;# 
   634  0017                     	;# 
   635  0018                     	;# 
   636  0019                     	;# 
   637  001A                     	;# 
   638  001B                     	;# 
   639  001C                     	;# 
   640  008C                     	;# 
   641  008E                     	;# 
   642  0091                     	;# 
   643  0092                     	;# 
   644  0093                     	;# 
   645  0095                     	;# 
   646  0096                     	;# 
   647  0097                     	;# 
   648  0099                     	;# 
   649  009A                     	;# 
   650  009B                     	;# 
   651  009B                     	;# 
   652  009C                     	;# 
   653  009D                     	;# 
   654  009E                     	;# 
   655  009F                     	;# 
   656  010C                     	;# 
   657  010E                     	;# 
   658  0111                     	;# 
   659  0112                     	;# 
   660  0113                     	;# 
   661  0114                     	;# 
   662  0115                     	;# 
   663  0116                     	;# 
   664  0117                     	;# 
   665  0118                     	;# 
   666  0119                     	;# 
   667  011D                     	;# 
   668  018C                     	;# 
   669  018E                     	;# 
   670  0191                     	;# 
   671  0191                     	;# 
   672  0192                     	;# 
   673  0193                     	;# 
   674  0193                     	;# 
   675  0194                     	;# 
   676  0195                     	;# 
   677  0196                     	;# 
   678  0197                     	;# 
   679  020C                     	;# 
   680  0211                     	;# 
   681  0211                     	;# 
   682  0212                     	;# 
   683  0212                     	;# 
   684  0213                     	;# 
   685  0213                     	;# 
   686  0214                     	;# 
   687  0214                     	;# 
   688  0215                     	;# 
   689  0215                     	;# 
   690  0215                     	;# 
   691  0216                     	;# 
   692  0216                     	;# 
   693  0217                     	;# 
   694  0217                     	;# 
   695  0391                     	;# 
   696  0392                     	;# 
   697  0393                     	;# 
   698  0498                     	;# 
   699  0498                     	;# 
   700  0499                     	;# 
   701  049A                     	;# 
   702  049B                     	;# 
   703  049B                     	;# 
   704  049C                     	;# 
   705  049D                     	;# 
   706  049E                     	;# 
   707  049F                     	;# 
   708  0611                     	;# 
   709  0612                     	;# 
   710  0613                     	;# 
   711  0613                     	;# 
   712  0614                     	;# 
   713  0615                     	;# 
   714  0616                     	;# 
   715  0616                     	;# 
   716  0617                     	;# 
   717  0618                     	;# 
   718  0619                     	;# 
   719  0619                     	;# 
   720  061A                     	;# 
   721  061B                     	;# 
   722  061C                     	;# 
   723  061C                     	;# 
   724  0691                     	;# 
   725  0692                     	;# 
   726  0693                     	;# 
   727  0694                     	;# 
   728  0695                     	;# 
   729  0F0F                     	;# 
   730  0F10                     	;# 
   731  0F11                     	;# 
   732  0F12                     	;# 
   733  0F13                     	;# 
   734  0F14                     	;# 
   735  0F15                     	;# 
   736  0F16                     	;# 
   737  0F17                     	;# 
   738  0F18                     	;# 
   739  0F19                     	;# 
   740  0F1A                     	;# 
   741  0F1B                     	;# 
   742  0F1C                     	;# 
   743  0F1D                     	;# 
   744  0F1E                     	;# 
   745  0F1F                     	;# 
   746  0FE3                     	;# 
   747  0FE4                     	;# 
   748  0FE5                     	;# 
   749  0FE6                     	;# 
   750  0FE7                     	;# 
   751  0FE8                     	;# 
   752  0FE9                     	;# 
   753  0FEA                     	;# 
   754  0FEB                     	;# 
   755  0FED                     	;# 
   756  0FEE                     	;# 
   757  0FEF                     	;# 
   758  0000                     	;# 
   759  0001                     	;# 
   760  0002                     	;# 
   761  0003                     	;# 
   762  0004                     	;# 
   763  0005                     	;# 
   764  0006                     	;# 
   765  0007                     	;# 
   766  0008                     	;# 
   767  0009                     	;# 
   768  000A                     	;# 
   769  000B                     	;# 
   770  000C                     	;# 
   771  000E                     	;# 
   772  0011                     	;# 
   773  0012                     	;# 
   774  0013                     	;# 
   775  0015                     	;# 
   776  0016                     	;# 
   777  0016                     	;# 
   778  0017                     	;# 
   779  0018                     	;# 
   780  0019                     	;# 
   781  001A                     	;# 
   782  001B                     	;# 
   783  001C                     	;# 
   784  008C                     	;# 
   785  008E                     	;# 
   786  0091                     	;# 
   787  0092                     	;# 
   788  0093                     	;# 
   789  0095                     	;# 
   790  0096                     	;# 
   791  0097                     	;# 
   792  0099                     	;# 
   793  009A                     	;# 
   794  009B                     	;# 
   795  009B                     	;# 
   796  009C                     	;# 
   797  009D                     	;# 
   798  009E                     	;# 
   799  009F                     	;# 
   800  010C                     	;# 
   801  010E                     	;# 
   802  0111                     	;# 
   803  0112                     	;# 
   804  0113                     	;# 
   805  0114                     	;# 
   806  0115                     	;# 
   807  0116                     	;# 
   808  0117                     	;# 
   809  0118                     	;# 
   810  0119                     	;# 
   811  011D                     	;# 
   812  018C                     	;# 
   813  018E                     	;# 
   814  0191                     	;# 
   815  0191                     	;# 
   816  0192                     	;# 
   817  0193                     	;# 
   818  0193                     	;# 
   819  0194                     	;# 
   820  0195                     	;# 
   821  0196                     	;# 
   822  0197                     	;# 
   823  020C                     	;# 
   824  0211                     	;# 
   825  0211                     	;# 
   826  0212                     	;# 
   827  0212                     	;# 
   828  0213                     	;# 
   829  0213                     	;# 
   830  0214                     	;# 
   831  0214                     	;# 
   832  0215                     	;# 
   833  0215                     	;# 
   834  0215                     	;# 
   835  0216                     	;# 
   836  0216                     	;# 
   837  0217                     	;# 
   838  0217                     	;# 
   839  0391                     	;# 
   840  0392                     	;# 
   841  0393                     	;# 
   842  0498                     	;# 
   843  0498                     	;# 
   844  0499                     	;# 
   845  049A                     	;# 
   846  049B                     	;# 
   847  049B                     	;# 
   848  049C                     	;# 
   849  049D                     	;# 
   850  049E                     	;# 
   851  049F                     	;# 
   852  0611                     	;# 
   853  0612                     	;# 
   854  0613                     	;# 
   855  0613                     	;# 
   856  0614                     	;# 
   857  0615                     	;# 
   858  0616                     	;# 
   859  0616                     	;# 
   860  0617                     	;# 
   861  0618                     	;# 
   862  0619                     	;# 
   863  0619                     	;# 
   864  061A                     	;# 
   865  061B                     	;# 
   866  061C                     	;# 
   867  061C                     	;# 
   868  0691                     	;# 
   869  0692                     	;# 
   870  0693                     	;# 
   871  0694                     	;# 
   872  0695                     	;# 
   873  0F0F                     	;# 
   874  0F10                     	;# 
   875  0F11                     	;# 
   876  0F12                     	;# 
   877  0F13                     	;# 
   878  0F14                     	;# 
   879  0F15                     	;# 
   880  0F16                     	;# 
   881  0F17                     	;# 
   882  0F18                     	;# 
   883  0F19                     	;# 
   884  0F1A                     	;# 
   885  0F1B                     	;# 
   886  0F1C                     	;# 
   887  0F1D                     	;# 
   888  0F1E                     	;# 
   889  0F1F                     	;# 
   890  0FE3                     	;# 
   891  0FE4                     	;# 
   892  0FE5                     	;# 
   893  0FE6                     	;# 
   894  0FE7                     	;# 
   895  0FE8                     	;# 
   896  0FE9                     	;# 
   897  0FEA                     	;# 
   898  0FEB                     	;# 
   899  0FED                     	;# 
   900  0FEE                     	;# 
   901  0FEF                     	;# 
   902  0000                     	;# 
   903  0001                     	;# 
   904  0002                     	;# 
   905  0003                     	;# 
   906  0004                     	;# 
   907  0005                     	;# 
   908  0006                     	;# 
   909  0007                     	;# 
   910  0008                     	;# 
   911  0009                     	;# 
   912  000A                     	;# 
   913  000B                     	;# 
   914  000C                     	;# 
   915  000E                     	;# 
   916  0011                     	;# 
   917  0012                     	;# 
   918  0013                     	;# 
   919  0015                     	;# 
   920  0016                     	;# 
   921  0016                     	;# 
   922  0017                     	;# 
   923  0018                     	;# 
   924  0019                     	;# 
   925  001A                     	;# 
   926  001B                     	;# 
   927  001C                     	;# 
   928  008C                     	;# 
   929  008E                     	;# 
   930  0091                     	;# 
   931  0092                     	;# 
   932  0093                     	;# 
   933  0095                     	;# 
   934  0096                     	;# 
   935  0097                     	;# 
   936  0099                     	;# 
   937  009A                     	;# 
   938  009B                     	;# 
   939  009B                     	;# 
   940  009C                     	;# 
   941  009D                     	;# 
   942  009E                     	;# 
   943  009F                     	;# 
   944  010C                     	;# 
   945  010E                     	;# 
   946  0111                     	;# 
   947  0112                     	;# 
   948  0113                     	;# 
   949  0114                     	;# 
   950  0115                     	;# 
   951  0116                     	;# 
   952  0117                     	;# 
   953  0118                     	;# 
   954  0119                     	;# 
   955  011D                     	;# 
   956  018C                     	;# 
   957  018E                     	;# 
   958  0191                     	;# 
   959  0191                     	;# 
   960  0192                     	;# 
   961  0193                     	;# 
   962  0193                     	;# 
   963  0194                     	;# 
   964  0195                     	;# 
   965  0196                     	;# 
   966  0197                     	;# 
   967  020C                     	;# 
   968  0211                     	;# 
   969  0211                     	;# 
   970  0212                     	;# 
   971  0212                     	;# 
   972  0213                     	;# 
   973  0213                     	;# 
   974  0214                     	;# 
   975  0214                     	;# 
   976  0215                     	;# 
   977  0215                     	;# 
   978  0215                     	;# 
   979  0216                     	;# 
   980  0216                     	;# 
   981  0217                     	;# 
   982  0217                     	;# 
   983  0391                     	;# 
   984  0392                     	;# 
   985  0393                     	;# 
   986  0498                     	;# 
   987  0498                     	;# 
   988  0499                     	;# 
   989  049A                     	;# 
   990  049B                     	;# 
   991  049B                     	;# 
   992  049C                     	;# 
   993  049D                     	;# 
   994  049E                     	;# 
   995  049F                     	;# 
   996  0611                     	;# 
   997  0612                     	;# 
   998  0613                     	;# 
   999  0613                     	;# 
  1000  0614                     	;# 
  1001  0615                     	;# 
  1002  0616                     	;# 
  1003  0616                     	;# 
  1004  0617                     	;# 
  1005  0618                     	;# 
  1006  0619                     	;# 
  1007  0619                     	;# 
  1008  061A                     	;# 
  1009  061B                     	;# 
  1010  061C                     	;# 
  1011  061C                     	;# 
  1012  0691                     	;# 
  1013  0692                     	;# 
  1014  0693                     	;# 
  1015  0694                     	;# 
  1016  0695                     	;# 
  1017  0F0F                     	;# 
  1018  0F10                     	;# 
  1019  0F11                     	;# 
  1020  0F12                     	;# 
  1021  0F13                     	;# 
  1022  0F14                     	;# 
  1023  0F15                     	;# 
  1024  0F16                     	;# 
  1025  0F17                     	;# 
  1026  0F18                     	;# 
  1027  0F19                     	;# 
  1028  0F1A                     	;# 
  1029  0F1B                     	;# 
  1030  0F1C                     	;# 
  1031  0F1D                     	;# 
  1032  0F1E                     	;# 
  1033  0F1F                     	;# 
  1034  0FE3                     	;# 
  1035  0FE4                     	;# 
  1036  0FE5                     	;# 
  1037  0FE6                     	;# 
  1038  0FE7                     	;# 
  1039  0FE8                     	;# 
  1040  0FE9                     	;# 
  1041  0FEA                     	;# 
  1042  0FEB                     	;# 
  1043  0FED                     	;# 
  1044  0FEE                     	;# 
  1045  0FEF                     	;# 
  1046  0000                     	;# 
  1047  0001                     	;# 
  1048  0002                     	;# 
  1049  0003                     	;# 
  1050  0004                     	;# 
  1051  0005                     	;# 
  1052  0006                     	;# 
  1053  0007                     	;# 
  1054  0008                     	;# 
  1055  0009                     	;# 
  1056  000A                     	;# 
  1057  000B                     	;# 
  1058  000C                     	;# 
  1059  000E                     	;# 
  1060  0011                     	;# 
  1061  0012                     	;# 
  1062  0013                     	;# 
  1063  0015                     	;# 
  1064  0016                     	;# 
  1065  0016                     	;# 
  1066  0017                     	;# 
  1067  0018                     	;# 
  1068  0019                     	;# 
  1069  001A                     	;# 
  1070  001B                     	;# 
  1071  001C                     	;# 
  1072  008C                     	;# 
  1073  008E                     	;# 
  1074  0091                     	;# 
  1075  0092                     	;# 
  1076  0093                     	;# 
  1077  0095                     	;# 
  1078  0096                     	;# 
  1079  0097                     	;# 
  1080  0099                     	;# 
  1081  009A                     	;# 
  1082  009B                     	;# 
  1083  009B                     	;# 
  1084  009C                     	;# 
  1085  009D                     	;# 
  1086  009E                     	;# 
  1087  009F                     	;# 
  1088  010C                     	;# 
  1089  010E                     	;# 
  1090  0111                     	;# 
  1091  0112                     	;# 
  1092  0113                     	;# 
  1093  0114                     	;# 
  1094  0115                     	;# 
  1095  0116                     	;# 
  1096  0117                     	;# 
  1097  0118                     	;# 
  1098  0119                     	;# 
  1099  011D                     	;# 
  1100  018C                     	;# 
  1101  018E                     	;# 
  1102  0191                     	;# 
  1103  0191                     	;# 
  1104  0192                     	;# 
  1105  0193                     	;# 
  1106  0193                     	;# 
  1107  0194                     	;# 
  1108  0195                     	;# 
  1109  0196                     	;# 
  1110  0197                     	;# 
  1111  020C                     	;# 
  1112  0211                     	;# 
  1113  0211                     	;# 
  1114  0212                     	;# 
  1115  0212                     	;# 
  1116  0213                     	;# 
  1117  0213                     	;# 
  1118  0214                     	;# 
  1119  0214                     	;# 
  1120  0215                     	;# 
  1121  0215                     	;# 
  1122  0215                     	;# 
  1123  0216                     	;# 
  1124  0216                     	;# 
  1125  0217                     	;# 
  1126  0217                     	;# 
  1127  0391                     	;# 
  1128  0392                     	;# 
  1129  0393                     	;# 
  1130  0498                     	;# 
  1131  0498                     	;# 
  1132  0499                     	;# 
  1133  049A                     	;# 
  1134  049B                     	;# 
  1135  049B                     	;# 
  1136  049C                     	;# 
  1137  049D                     	;# 
  1138  049E                     	;# 
  1139  049F                     	;# 
  1140  0611                     	;# 
  1141  0612                     	;# 
  1142  0613                     	;# 
  1143  0613                     	;# 
  1144  0614                     	;# 
  1145  0615                     	;# 
  1146  0616                     	;# 
  1147  0616                     	;# 
  1148  0617                     	;# 
  1149  0618                     	;# 
  1150  0619                     	;# 
  1151  0619                     	;# 
  1152  061A                     	;# 
  1153  061B                     	;# 
  1154  061C                     	;# 
  1155  061C                     	;# 
  1156  0691                     	;# 
  1157  0692                     	;# 
  1158  0693                     	;# 
  1159  0694                     	;# 
  1160  0695                     	;# 
  1161  0F0F                     	;# 
  1162  0F10                     	;# 
  1163  0F11                     	;# 
  1164  0F12                     	;# 
  1165  0F13                     	;# 
  1166  0F14                     	;# 
  1167  0F15                     	;# 
  1168  0F16                     	;# 
  1169  0F17                     	;# 
  1170  0F18                     	;# 
  1171  0F19                     	;# 
  1172  0F1A                     	;# 
  1173  0F1B                     	;# 
  1174  0F1C                     	;# 
  1175  0F1D                     	;# 
  1176  0F1E                     	;# 
  1177  0F1F                     	;# 
  1178  0FE3                     	;# 
  1179  0FE4                     	;# 
  1180  0FE5                     	;# 
  1181  0FE6                     	;# 
  1182  0FE7                     	;# 
  1183  0FE8                     	;# 
  1184  0FE9                     	;# 
  1185  0FEA                     	;# 
  1186  0FEB                     	;# 
  1187  0FED                     	;# 
  1188  0FEE                     	;# 
  1189  0FEF                     	;# 
  1190  0000                     	;# 
  1191  0001                     	;# 
  1192  0002                     	;# 
  1193  0003                     	;# 
  1194  0004                     	;# 
  1195  0005                     	;# 
  1196  0006                     	;# 
  1197  0007                     	;# 
  1198  0008                     	;# 
  1199  0009                     	;# 
  1200  000A                     	;# 
  1201  000B                     	;# 
  1202  000C                     	;# 
  1203  000E                     	;# 
  1204  0011                     	;# 
  1205  0012                     	;# 
  1206  0013                     	;# 
  1207  0015                     	;# 
  1208  0016                     	;# 
  1209  0016                     	;# 
  1210  0017                     	;# 
  1211  0018                     	;# 
  1212  0019                     	;# 
  1213  001A                     	;# 
  1214  001B                     	;# 
  1215  001C                     	;# 
  1216  008C                     	;# 
  1217  008E                     	;# 
  1218  0091                     	;# 
  1219  0092                     	;# 
  1220  0093                     	;# 
  1221  0095                     	;# 
  1222  0096                     	;# 
  1223  0097                     	;# 
  1224  0099                     	;# 
  1225  009A                     	;# 
  1226  009B                     	;# 
  1227  009B                     	;# 
  1228  009C                     	;# 
  1229  009D                     	;# 
  1230  009E                     	;# 
  1231  009F                     	;# 
  1232  010C                     	;# 
  1233  010E                     	;# 
  1234  0111                     	;# 
  1235  0112                     	;# 
  1236  0113                     	;# 
  1237  0114                     	;# 
  1238  0115                     	;# 
  1239  0116                     	;# 
  1240  0117                     	;# 
  1241  0118                     	;# 
  1242  0119                     	;# 
  1243  011D                     	;# 
  1244  018C                     	;# 
  1245  018E                     	;# 
  1246  0191                     	;# 
  1247  0191                     	;# 
  1248  0192                     	;# 
  1249  0193                     	;# 
  1250  0193                     	;# 
  1251  0194                     	;# 
  1252  0195                     	;# 
  1253  0196                     	;# 
  1254  0197                     	;# 
  1255  020C                     	;# 
  1256  0211                     	;# 
  1257  0211                     	;# 
  1258  0212                     	;# 
  1259  0212                     	;# 
  1260  0213                     	;# 
  1261  0213                     	;# 
  1262  0214                     	;# 
  1263  0214                     	;# 
  1264  0215                     	;# 
  1265  0215                     	;# 
  1266  0215                     	;# 
  1267  0216                     	;# 
  1268  0216                     	;# 
  1269  0217                     	;# 
  1270  0217                     	;# 
  1271  0391                     	;# 
  1272  0392                     	;# 
  1273  0393                     	;# 
  1274  0498                     	;# 
  1275  0498                     	;# 
  1276  0499                     	;# 
  1277  049A                     	;# 
  1278  049B                     	;# 
  1279  049B                     	;# 
  1280  049C                     	;# 
  1281  049D                     	;# 
  1282  049E                     	;# 
  1283  049F                     	;# 
  1284  0611                     	;# 
  1285  0612                     	;# 
  1286  0613                     	;# 
  1287  0613                     	;# 
  1288  0614                     	;# 
  1289  0615                     	;# 
  1290  0616                     	;# 
  1291  0616                     	;# 
  1292  0617                     	;# 
  1293  0618                     	;# 
  1294  0619                     	;# 
  1295  0619                     	;# 
  1296  061A                     	;# 
  1297  061B                     	;# 
  1298  061C                     	;# 
  1299  061C                     	;# 
  1300  0691                     	;# 
  1301  0692                     	;# 
  1302  0693                     	;# 
  1303  0694                     	;# 
  1304  0695                     	;# 
  1305  0F0F                     	;# 
  1306  0F10                     	;# 
  1307  0F11                     	;# 
  1308  0F12                     	;# 
  1309  0F13                     	;# 
  1310  0F14                     	;# 
  1311  0F15                     	;# 
  1312  0F16                     	;# 
  1313  0F17                     	;# 
  1314  0F18                     	;# 
  1315  0F19                     	;# 
  1316  0F1A                     	;# 
  1317  0F1B                     	;# 
  1318  0F1C                     	;# 
  1319  0F1D                     	;# 
  1320  0F1E                     	;# 
  1321  0F1F                     	;# 
  1322  0FE3                     	;# 
  1323  0FE4                     	;# 
  1324  0FE5                     	;# 
  1325  0FE6                     	;# 
  1326  0FE7                     	;# 
  1327  0FE8                     	;# 
  1328  0FE9                     	;# 
  1329  0FEA                     	;# 
  1330  0FEB                     	;# 
  1331  0FED                     	;# 
  1332  0FEE                     	;# 
  1333  0FEF                     	;# 
  1334  0000                     	;# 
  1335  0001                     	;# 
  1336  0002                     	;# 
  1337  0003                     	;# 
  1338  0004                     	;# 
  1339  0005                     	;# 
  1340  0006                     	;# 
  1341  0007                     	;# 
  1342  0008                     	;# 
  1343  0009                     	;# 
  1344  000A                     	;# 
  1345  000B                     	;# 
  1346  000C                     	;# 
  1347  000E                     	;# 
  1348  0011                     	;# 
  1349  0012                     	;# 
  1350  0013                     	;# 
  1351  0015                     	;# 
  1352  0016                     	;# 
  1353  0016                     	;# 
  1354  0017                     	;# 
  1355  0018                     	;# 
  1356  0019                     	;# 
  1357  001A                     	;# 
  1358  001B                     	;# 
  1359  001C                     	;# 
  1360  008C                     	;# 
  1361  008E                     	;# 
  1362  0091                     	;# 
  1363  0092                     	;# 
  1364  0093                     	;# 
  1365  0095                     	;# 
  1366  0096                     	;# 
  1367  0097                     	;# 
  1368  0099                     	;# 
  1369  009A                     	;# 
  1370  009B                     	;# 
  1371  009B                     	;# 
  1372  009C                     	;# 
  1373  009D                     	;# 
  1374  009E                     	;# 
  1375  009F                     	;# 
  1376  010C                     	;# 
  1377  010E                     	;# 
  1378  0111                     	;# 
  1379  0112                     	;# 
  1380  0113                     	;# 
  1381  0114                     	;# 
  1382  0115                     	;# 
  1383  0116                     	;# 
  1384  0117                     	;# 
  1385  0118                     	;# 
  1386  0119                     	;# 
  1387  011D                     	;# 
  1388  018C                     	;# 
  1389  018E                     	;# 
  1390  0191                     	;# 
  1391  0191                     	;# 
  1392  0192                     	;# 
  1393  0193                     	;# 
  1394  0193                     	;# 
  1395  0194                     	;# 
  1396  0195                     	;# 
  1397  0196                     	;# 
  1398  0197                     	;# 
  1399  020C                     	;# 
  1400  0211                     	;# 
  1401  0211                     	;# 
  1402  0212                     	;# 
  1403  0212                     	;# 
  1404  0213                     	;# 
  1405  0213                     	;# 
  1406  0214                     	;# 
  1407  0214                     	;# 
  1408  0215                     	;# 
  1409  0215                     	;# 
  1410  0215                     	;# 
  1411  0216                     	;# 
  1412  0216                     	;# 
  1413  0217                     	;# 
  1414  0217                     	;# 
  1415  0391                     	;# 
  1416  0392                     	;# 
  1417  0393                     	;# 
  1418  0498                     	;# 
  1419  0498                     	;# 
  1420  0499                     	;# 
  1421  049A                     	;# 
  1422  049B                     	;# 
  1423  049B                     	;# 
  1424  049C                     	;# 
  1425  049D                     	;# 
  1426  049E                     	;# 
  1427  049F                     	;# 
  1428  0611                     	;# 
  1429  0612                     	;# 
  1430  0613                     	;# 
  1431  0613                     	;# 
  1432  0614                     	;# 
  1433  0615                     	;# 
  1434  0616                     	;# 
  1435  0616                     	;# 
  1436  0617                     	;# 
  1437  0618                     	;# 
  1438  0619                     	;# 
  1439  0619                     	;# 
  1440  061A                     	;# 
  1441  061B                     	;# 
  1442  061C                     	;# 
  1443  061C                     	;# 
  1444  0691                     	;# 
  1445  0692                     	;# 
  1446  0693                     	;# 
  1447  0694                     	;# 
  1448  0695                     	;# 
  1449  0F0F                     	;# 
  1450  0F10                     	;# 
  1451  0F11                     	;# 
  1452  0F12                     	;# 
  1453  0F13                     	;# 
  1454  0F14                     	;# 
  1455  0F15                     	;# 
  1456  0F16                     	;# 
  1457  0F17                     	;# 
  1458  0F18                     	;# 
  1459  0F19                     	;# 
  1460  0F1A                     	;# 
  1461  0F1B                     	;# 
  1462  0F1C                     	;# 
  1463  0F1D                     	;# 
  1464  0F1E                     	;# 
  1465  0F1F                     	;# 
  1466  0FE3                     	;# 
  1467  0FE4                     	;# 
  1468  0FE5                     	;# 
  1469  0FE6                     	;# 
  1470  0FE7                     	;# 
  1471  0FE8                     	;# 
  1472  0FE9                     	;# 
  1473  0FEA                     	;# 
  1474  0FEB                     	;# 
  1475  0FED                     	;# 
  1476  0FEE                     	;# 
  1477  0FEF                     	;# 
  1478                           
  1479                           	psect	stringtext
  1480  0029                     __pstringtext:	
  1481  0029                     _WaterLevelLookup:	
  1482  0029  3400               	retlw	0
  1483  002A  3400               	retlw	0
  1484  002B  340D               	retlw	13
  1485  002C  3400               	retlw	0
  1486  002D  3425               	retlw	37
  1487  002E  3400               	retlw	0
  1488  002F  3444               	retlw	68
  1489  0030  3400               	retlw	0
  1490  0031  3469               	retlw	105
  1491  0032  3400               	retlw	0
  1492  0033  3492               	retlw	146
  1493  0034  3400               	retlw	0
  1494  0035  34C0               	retlw	192
  1495  0036  3400               	retlw	0
  1496  0037  34F2               	retlw	242
  1497  0038  3400               	retlw	0
  1498  0039  3427               	retlw	39
  1499  003A  3401               	retlw	1
  1500  003B  3460               	retlw	96
  1501  003C  3401               	retlw	1
  1502  003D  349B               	retlw	155
  1503  003E  3401               	retlw	1
  1504  003F  34DA               	retlw	218
  1505  0040  3401               	retlw	1
  1506  0041  341B               	retlw	27
  1507  0042  3402               	retlw	2
  1508  0043  345E               	retlw	94
  1509  0044  3402               	retlw	2
  1510  0045  34A5               	retlw	165
  1511  0046  3402               	retlw	2
  1512  0047  34ED               	retlw	237
  1513  0048  3402               	retlw	2
  1514  0049  3438               	retlw	56
  1515  004A  3403               	retlw	3
  1516  004B  3485               	retlw	133
  1517  004C  3403               	retlw	3
  1518  004D  34D4               	retlw	212
  1519  004E  3403               	retlw	3
  1520  004F  3425               	retlw	37
  1521  0050  3404               	retlw	4
  1522  0051  3479               	retlw	121
  1523  0052  3404               	retlw	4
  1524  0053  34CD               	retlw	205
  1525  0054  3404               	retlw	4
  1526  0055  3424               	retlw	36
  1527  0056  3405               	retlw	5
  1528  0057  347D               	retlw	125
  1529  0058  3405               	retlw	5
  1530  0059  34D7               	retlw	215
  1531  005A  3405               	retlw	5
  1532  005B  3433               	retlw	51
  1533  005C  3406               	retlw	6
  1534  005D  3490               	retlw	144
  1535  005E  3406               	retlw	6
  1536  005F  34EF               	retlw	239
  1537  0060  3406               	retlw	6
  1538  0061  344F               	retlw	79
  1539  0062  3407               	retlw	7
  1540  0063  34B1               	retlw	177
  1541  0064  3407               	retlw	7
  1542  0065  3414               	retlw	20
  1543  0066  3408               	retlw	8
  1544  0067  346F               	retlw	111
  1545  0068  3408               	retlw	8
  1546  0069  34DF               	retlw	223
  1547  006A  3408               	retlw	8
  1548  006B  3446               	retlw	70
  1549  006C  3409               	retlw	9
  1550  006D  34AF               	retlw	175
  1551  006E  3409               	retlw	9
  1552  006F  3419               	retlw	25
  1553  0070  340A               	retlw	10
  1554  0071  3484               	retlw	132
  1555  0072  340A               	retlw	10
  1556  0073  34F0               	retlw	240
  1557  0074  340A               	retlw	10
  1558  0075  345D               	retlw	93
  1559  0076  340B               	retlw	11
  1560  0077  34CC               	retlw	204
  1561  0078  340B               	retlw	11
  1562  0079  343B               	retlw	59
  1563  007A  340C               	retlw	12
  1564  007B  34AC               	retlw	172
  1565  007C  340C               	retlw	12
  1566  007D  341D               	retlw	29
  1567  007E  340D               	retlw	13
  1568  007F  3490               	retlw	144
  1569  0080  340D               	retlw	13
  1570  0081  3403               	retlw	3
  1571  0082  340E               	retlw	14
  1572  0083  3478               	retlw	120
  1573  0084  340E               	retlw	14
  1574  0085  34ED               	retlw	237
  1575  0086  340E               	retlw	14
  1576  0087  3463               	retlw	99
  1577  0088  340F               	retlw	15
  1578  0089  34DA               	retlw	218
  1579  008A  340F               	retlw	15
  1580  008B  3452               	retlw	82
  1581  008C  3410               	retlw	16
  1582  008D  34CB               	retlw	203
  1583  008E  3410               	retlw	16
  1584  008F  3445               	retlw	69
  1585  0090  3411               	retlw	17
  1586  0091  34BF               	retlw	191
  1587  0092  3411               	retlw	17
  1588  0093  343B               	retlw	59
  1589  0094  3412               	retlw	18
  1590  0095  34B7               	retlw	183
  1591  0096  3412               	retlw	18
  1592  0097  3433               	retlw	51
  1593  0098  3413               	retlw	19
  1594  0099  34B1               	retlw	177
  1595  009A  3413               	retlw	19
  1596  009B  342F               	retlw	47
  1597  009C  3414               	retlw	20
  1598  009D  34AD               	retlw	173
  1599  009E  3414               	retlw	20
  1600  009F  342D               	retlw	45
  1601  00A0  3415               	retlw	21
  1602  00A1  34AD               	retlw	173
  1603  00A2  3415               	retlw	21
  1604  00A3  342D               	retlw	45
  1605  00A4  3416               	retlw	22
  1606  00A5  34AF               	retlw	175
  1607  00A6  3416               	retlw	22
  1608  00A7  3430               	retlw	48
  1609  00A8  3417               	retlw	23
  1610  00A9  34B3               	retlw	179
  1611  00AA  3417               	retlw	23
  1612  00AB  3436               	retlw	54
  1613  00AC  3418               	retlw	24
  1614  00AD  34B9               	retlw	185
  1615  00AE  3418               	retlw	24
  1616  00AF  343D               	retlw	61
  1617  00B0  3419               	retlw	25
  1618  00B1  34C1               	retlw	193
  1619  00B2  3419               	retlw	25
  1620  00B3  3446               	retlw	70
  1621  00B4  341A               	retlw	26
  1622  00B5  34CB               	retlw	203
  1623  00B6  341A               	retlw	26
  1624  00B7  3451               	retlw	81
  1625  00B8  341B               	retlw	27
  1626  00B9  34D7               	retlw	215
  1627  00BA  341B               	retlw	27
  1628  00BB  345E               	retlw	94
  1629  00BC  341C               	retlw	28
  1630  00BD  34E5               	retlw	229
  1631  00BE  341C               	retlw	28
  1632  00BF  346C               	retlw	108
  1633  00C0  341D               	retlw	29
  1634  00C1  34F4               	retlw	244
  1635  00C2  341D               	retlw	29
  1636  00C3  347C               	retlw	124
  1637  00C4  341E               	retlw	30
  1638  00C5  3405               	retlw	5
  1639  00C6  341F               	retlw	31
  1640  00C7  348D               	retlw	141
  1641  00C8  341F               	retlw	31
  1642  00C9  3416               	retlw	22
  1643  00CA  3420               	retlw	32
  1644  00CB  34A0               	retlw	160
  1645  00CC  3420               	retlw	32
  1646  00CD  3429               	retlw	41
  1647  00CE  3421               	retlw	33
  1648  00CF  34B3               	retlw	179
  1649  00D0  3421               	retlw	33
  1650  00D1  343D               	retlw	61
  1651  00D2  3422               	retlw	34
  1652  00D3  34C7               	retlw	199
  1653  00D4  3422               	retlw	34
  1654  00D5  3452               	retlw	82
  1655  00D6  3423               	retlw	35
  1656  00D7  34DD               	retlw	221
  1657  00D8  3423               	retlw	35
  1658  00D9  3468               	retlw	104
  1659  00DA  3424               	retlw	36
  1660  00DB  34F3               	retlw	243
  1661  00DC  3424               	retlw	36
  1662  00DD  347E               	retlw	126
  1663  00DE  3425               	retlw	37
  1664  00DF  3409               	retlw	9
  1665  00E0  3426               	retlw	38
  1666  00E1  3495               	retlw	149
  1667  00E2  3426               	retlw	38
  1668  00E3  3420               	retlw	32
  1669  00E4  3427               	retlw	39
  1670  00E5  34AC               	retlw	172
  1671  00E6  3427               	retlw	39
  1672  00E7  3437               	retlw	55
  1673  00E8  3428               	retlw	40
  1674  00E9  34C4               	retlw	196
  1675  00EA  3428               	retlw	40
  1676  00EB  3450               	retlw	80
  1677  00EC  3429               	retlw	41
  1678  00ED  34DC               	retlw	220
  1679  00EE  3429               	retlw	41
  1680  00EF  3468               	retlw	104
  1681  00F0  342A               	retlw	42
  1682  00F1  34F4               	retlw	244
  1683  00F2  342A               	retlw	42
  1684  00F3  3480               	retlw	128
  1685  00F4  342B               	retlw	43
  1686  00F5  340C               	retlw	12
  1687  00F6  342C               	retlw	44
  1688  00F7  3498               	retlw	152
  1689  00F8  342C               	retlw	44
  1690  00F9  3423               	retlw	35
  1691  00FA  342D               	retlw	45
  1692  00FB  34AF               	retlw	175
  1693  00FC  342D               	retlw	45
  1694  00FD  343B               	retlw	59
  1695  00FE  342E               	retlw	46
  1696  00FF  34C7               	retlw	199
  1697  0100  342E               	retlw	46
  1698  0101  3452               	retlw	82
  1699  0102  342F               	retlw	47
  1700  0103  34DE               	retlw	222
  1701  0104  342F               	retlw	47
  1702  0105  3469               	retlw	105
  1703  0106  3430               	retlw	48
  1704  0107  34F4               	retlw	244
  1705  0108  3430               	retlw	48
  1706  0109  3480               	retlw	128
  1707  010A  3431               	retlw	49
  1708  010B  340A               	retlw	10
  1709  010C  3432               	retlw	50
  1710  010D  3495               	retlw	149
  1711  010E  3432               	retlw	50
  1712  010F  3420               	retlw	32
  1713  0110  3433               	retlw	51
  1714  0111  34AA               	retlw	170
  1715  0112  3433               	retlw	51
  1716  0113  3434               	retlw	52
  1717  0114  3434               	retlw	52
  1718  0115  34BE               	retlw	190
  1719  0116  3434               	retlw	52
  1720  0117  3447               	retlw	71
  1721  0118  3435               	retlw	53
  1722  0119  34D1               	retlw	209
  1723  011A  3435               	retlw	53
  1724  011B  345A               	retlw	90
  1725  011C  3436               	retlw	54
  1726  011D  34E3               	retlw	227
  1727  011E  3436               	retlw	54
  1728  011F  346B               	retlw	107
  1729  0120  3437               	retlw	55
  1730  0121  34F3               	retlw	243
  1731  0122  3437               	retlw	55
  1732  0123  347B               	retlw	123
  1733  0124  3438               	retlw	56
  1734  0125  3402               	retlw	2
  1735  0126  3439               	retlw	57
  1736  0127  3489               	retlw	137
  1737  0128  3439               	retlw	57
  1738  0129  3410               	retlw	16
  1739  012A  343A               	retlw	58
  1740  012B  3496               	retlw	150
  1741  012C  343A               	retlw	58
  1742  012D  341C               	retlw	28
  1743  012E  343B               	retlw	59
  1744  012F  34A1               	retlw	161
  1745  0130  343B               	retlw	59
  1746  0131  3426               	retlw	38
  1747  0132  343C               	retlw	60
  1748  0133  34AA               	retlw	170
  1749  0134  343C               	retlw	60
  1750  0135  342E               	retlw	46
  1751  0136  343D               	retlw	61
  1752  0137  34B2               	retlw	178
  1753  0138  343D               	retlw	61
  1754  0139  34B7               	retlw	183
  1755  013A  343E               	retlw	62
  1756  013B  3439               	retlw	57
  1757  013C  343F               	retlw	63
  1758  013D  34BA               	retlw	186
  1759  013E  343F               	retlw	63
  1760  013F  343A               	retlw	58
  1761  0140  3440               	retlw	64
  1762  0141  34BA               	retlw	186
  1763  0142  3440               	retlw	64
  1764  0143  34D6               	retlw	214
  1765  0144  3440               	retlw	64
  1766  0145  34B9               	retlw	185
  1767  0146  3441               	retlw	65
  1768  0147  3437               	retlw	55
  1769  0148  3442               	retlw	66
  1770  0149  34B4               	retlw	180
  1771  014A  3442               	retlw	66
  1772  014B  3431               	retlw	49
  1773  014C  3443               	retlw	67
  1774  014D  34AD               	retlw	173
  1775  014E  3443               	retlw	67
  1776  014F  3428               	retlw	40
  1777  0150  3444               	retlw	68
  1778  0151  34A2               	retlw	162
  1779  0152  3444               	retlw	68
  1780  0153  341C               	retlw	28
  1781  0154  3445               	retlw	69
  1782  0155  3495               	retlw	149
  1783  0156  3445               	retlw	69
  1784  0157  340D               	retlw	13
  1785  0158  3446               	retlw	70
  1786  0159  3484               	retlw	132
  1787  015A  3446               	retlw	70
  1788  015B  34FA               	retlw	250
  1789  015C  3446               	retlw	70
  1790  015D  3470               	retlw	112
  1791  015E  3447               	retlw	71
  1792  015F  34E4               	retlw	228
  1793  0160  3447               	retlw	71
  1794  0161  3457               	retlw	87
  1795  0162  3448               	retlw	72
  1796  0163  34CA               	retlw	202
  1797  0164  3448               	retlw	72
  1798  0165  343C               	retlw	60
  1799  0166  3449               	retlw	73
  1800  0167  34AC               	retlw	172
  1801  0168  3449               	retlw	73
  1802  0169  341C               	retlw	28
  1803  016A  344A               	retlw	74
  1804  016B  348A               	retlw	138
  1805  016C  344A               	retlw	74
  1806  016D  34F7               	retlw	247
  1807  016E  344A               	retlw	74
  1808  016F  3463               	retlw	99
  1809  0170  344B               	retlw	75
  1810  0171  34CE               	retlw	206
  1811  0172  344B               	retlw	75
  1812  0173  3438               	retlw	56
  1813  0174  344C               	retlw	76
  1814  0175  34A1               	retlw	161
  1815  0176  344C               	retlw	76
  1816  0177  3408               	retlw	8
  1817  0178  344D               	retlw	77
  1818  0179  346E               	retlw	110
  1819  017A  344D               	retlw	77
  1820  017B  34D3               	retlw	211
  1821  017C  344D               	retlw	77
  1822  017D  3436               	retlw	54
  1823  017E  344E               	retlw	78
  1824  017F  3498               	retlw	152
  1825  0180  344E               	retlw	78
  1826  0181  34F8               	retlw	248
  1827  0182  344E               	retlw	78
  1828  0183  3457               	retlw	87
  1829  0184  344F               	retlw	79
  1830  0185  34B5               	retlw	181
  1831  0186  344F               	retlw	79
  1832  0187  3410               	retlw	16
  1833  0188  3450               	retlw	80
  1834  0189  346B               	retlw	107
  1835  018A  3450               	retlw	80
  1836  018B  34C3               	retlw	195
  1837  018C  3450               	retlw	80
  1838  018D  341A               	retlw	26
  1839  018E  3451               	retlw	81
  1840  018F  346F               	retlw	111
  1841  0190  3451               	retlw	81
  1842  0191  34C2               	retlw	194
  1843  0192  3451               	retlw	81
  1844  0193  3413               	retlw	19
  1845  0194  3452               	retlw	82
  1846  0195  3462               	retlw	98
  1847  0196  3452               	retlw	82
  1848  0197  34AF               	retlw	175
  1849  0198  3452               	retlw	82
  1850  0199  34FA               	retlw	250
  1851  019A  3452               	retlw	82
  1852  019B  3442               	retlw	66
  1853  019C  3453               	retlw	83
  1854  019D  3489               	retlw	137
  1855  019E  3453               	retlw	83
  1856  019F  34CC               	retlw	204
  1857  01A0  3453               	retlw	83
  1858  01A1  340E               	retlw	14
  1859  01A2  3454               	retlw	84
  1860  01A3  344C               	retlw	76
  1861  01A4  3454               	retlw	84
  1862  01A5  3488               	retlw	136
  1863  01A6  3454               	retlw	84
  1864  01A7  34BF               	retlw	191
  1865  01A8  3454               	retlw	84
  1866  01A9  34F5               	retlw	245
  1867  01AA  3454               	retlw	84
  1868  01AB  3427               	retlw	39
  1869  01AC  3455               	retlw	85
  1870  01AD  3455               	retlw	85
  1871  01AE  3455               	retlw	85
  1872  01AF  344C               	retlw	76
  1873  01B0  3455               	retlw	85
  1874  01B1  34A3               	retlw	163
  1875  01B2  3455               	retlw	85
  1876  01B3  34C2               	retlw	194
  1877  01B4  3455               	retlw	85
  1878  01B5  34DA               	retlw	218
  1879  01B6  3455               	retlw	85
  1880  01B7  34E7               	retlw	231
  1881  01B8  3455               	retlw	85
  1882  01B9                     __end_of_WaterLevelLookup:	
  1883  01B9                     Display_put@display_segment:	
  1884  01B9  3400               	retlw	0
  1885  01BA  346F               	retlw	111
  1886  01BB  340A               	retlw	10
  1887  01BC  3476               	retlw	118
  1888  01BD  345E               	retlw	94
  1889  01BE  341B               	retlw	27
  1890  01BF  345D               	retlw	93
  1891  01C0  347D               	retlw	125
  1892  01C1  340E               	retlw	14
  1893  01C2  347F               	retlw	127
  1894  01C3  345F               	retlw	95
  1895  01C4                     __end_ofDisplay_put@display_segment:	
  1896                           
  1897                           	psect	nvCOMMON
  1898  007A                     __pnvCOMMON:	
  1899  007A                     _timer1ReloadVal:	
  1900  007A                     	ds	2
  1901                           
  1902                           	psect	nvBANK0
  1903  005E                     __pnvBANK0:	
  1904  005E                     _timer0ReloadVal:	
  1905  005E                     	ds	1
  1906  000B                     _INTCONbits	set	11
  1907  0011                     _PIR1bits	set	17
  1908  0018                     _T1CON	set	24
  1909  0018                     _T1CONbits	set	24
  1910  0019                     _T1GCON	set	25
  1911  0019                     _T1GCONbits	set	25
  1912  0015                     _TMR0	set	21
  1913  0017                     _TMR1H	set	23
  1914  0016                     _TMR1L	set	22
  1915  0073                     _RC3	set	115
  1916  009D                     _ADCON0	set	157
  1917  009D                     _ADCON0bits	set	157
  1918  009E                     _ADCON1	set	158
  1919  009F                     _ADCON2	set	159
  1920  009C                     _ADRESH	set	156
  1921  009B                     _ADRESL	set	155
  1922  0095                     _OPTION_REG	set	149
  1923  0095                     _OPTION_REGbits	set	149
  1924  0099                     _OSCCON	set	153
  1925  009A                     _OSCSTAT	set	154
  1926  0091                     _PIE1bits	set	145
  1927  008C                     _TRISA	set	140
  1928  008E                     _TRISC	set	142
  1929  011D                     _APFCON	set	285
  1930  010C                     _LATA	set	268
  1931  010E                     _LATC	set	270
  1932  0874                     _LATC4	set	2164
  1933  0875                     _LATC5	set	2165
  1934  018C                     _ANSELA	set	396
  1935  018E                     _ANSELC	set	398
  1936  020C                     _WPUA	set	524
  1937                           
  1938                           ; #config settings
  1939  0000                     
  1940                           	psect	cinit
  1941  0020                     start_initialization:	
  1942  0020                     __initialization:	
  1943                           
  1944                           ; Clear objects allocated to BANK0
  1945  0020  304B               	movlw	low __pbssBANK0
  1946  0021  0084               	movwf	4
  1947  0022  3000               	movlw	high __pbssBANK0
  1948  0023  0085               	movwf	5
  1949  0024  3013               	movlw	19
  1950  0025  24C8               	fcall	clear_ram0
  1951  0026                     end_of_initialization:	
  1952                           ;End of C runtime variable initialization code
  1953                           
  1954  0026                     __end_of__initialization:	
  1955  0026  107E               	bcf	int$flags,0	;clear compiler interrupt flag (level 1)
  1956  0027  0020               	movlb	0
  1957  0028  2CDA               	ljmp	_main	;jump to C main() function
  1958                           
  1959                           	psect	bssBANK0
  1960  004B                     __pbssBANK0:	
  1961  004B                     Display_value@F3236:	
  1962  004B                     	ds	6
  1963  0051                     Display_value@F3238:	
  1964  0051                     	ds	6
  1965  0057                     _wlData:	
  1966  0057                     	ds	6
  1967  005D                     _dot:	
  1968  005D                     	ds	1
  1969                           
  1970                           	psect	clrtext
  1971  04C8                     clear_ram0:	
  1972                           ;	Called with FSR0 containing the base address, and
  1973                           ;	WREG with the size to clear
  1974                           
  1975  04C8  0064               	clrwdt	;clear the watchdog before getting into this loop
  1976  04C9                     clrloop0:	
  1977  04C9  0180               	clrf	0	;clear RAM location pointed to by FSR
  1978  04CA  3101               	addfsr 0,1
  1979  04CB  0B89               	decfsz	9,f	;Have we reached the end of clearing yet?
  1980  04CC  2CC9               	goto	clrloop0	;have we reached the end yet?
  1981  04CD  3400               	retlw	0	;all done for this memory range, return
  1982                           
  1983                           	psect	cstackCOMMON
  1984  0070                     __pcstackCOMMON:	
  1985  0070                     ?_OSCILLATOR_Initialize:	
  1986  0070                     ?_ADC_Initialize:	
  1987                           ; 0 bytes @ 0x0
  1988                           
  1989  0070                     ?_TMR1_Initialize:	
  1990                           ; 0 bytes @ 0x0
  1991                           
  1992  0070                     ?_TMR0_Initialize:	
  1993                           ; 0 bytes @ 0x0
  1994                           
  1995  0070                     ?_TMR1_StartTimer:	
  1996                           ; 0 bytes @ 0x0
  1997                           
  1998  0070                     ?_TMR1_CallBack:	
  1999                           ; 0 bytes @ 0x0
  2000                           
  2001  0070                     ??_TMR1_CallBack:	
  2002                           ; 0 bytes @ 0x0
  2003                           
  2004  0070                     ?_TMR0_ISR:	
  2005                           ; 0 bytes @ 0x0
  2006                           
  2007  0070                     ??_TMR0_ISR:	
  2008                           ; 0 bytes @ 0x0
  2009                           
  2010  0070                     ?_TMR0_CallBack:	
  2011                           ; 0 bytes @ 0x0
  2012                           
  2013  0070                     ??_TMR0_CallBack:	
  2014                           ; 0 bytes @ 0x0
  2015                           
  2016  0070                     ?_PIN_MANAGER_Initialize:	
  2017                           ; 0 bytes @ 0x0
  2018                           
  2019  0070                     ?_SYSTEM_Initialize:	
  2020                           ; 0 bytes @ 0x0
  2021                           
  2022  0070                     ?_TMR1_ISR:	
  2023                           ; 0 bytes @ 0x0
  2024                           
  2025  0070                     ??_TMR1_ISR:	
  2026                           ; 0 bytes @ 0x0
  2027                           
  2028  0070                     ?_INTERRUPT_InterruptManager:	
  2029                           ; 0 bytes @ 0x0
  2030                           
  2031  0070                     ??_INTERRUPT_InterruptManager:	
  2032                           ; 0 bytes @ 0x0
  2033                           
  2034  0070                     ?_WaterLevelDisplay_StateMachine:	
  2035                           ; 0 bytes @ 0x0
  2036                           
  2037  0070                     ?_main:	
  2038                           ; 0 bytes @ 0x0
  2039                           
  2040                           
  2041                           ; 0 bytes @ 0x0
  2042  0070                     	ds	2
  2043  0072                     ?_GetStringReverse:	
  2044  0072                     ?_Display_put:	
  2045                           ; 0 bytes @ 0x2
  2046                           
  2047  0072                     ??_OSCILLATOR_Initialize:	
  2048                           ; 0 bytes @ 0x2
  2049                           
  2050  0072                     ??_ADC_Initialize:	
  2051                           ; 0 bytes @ 0x2
  2052                           
  2053  0072                     ??_TMR1_Initialize:	
  2054                           ; 0 bytes @ 0x2
  2055                           
  2056  0072                     ??_TMR0_Initialize:	
  2057                           ; 0 bytes @ 0x2
  2058                           
  2059  0072                     ??_TMR1_StartTimer:	
  2060                           ; 0 bytes @ 0x2
  2061                           
  2062  0072                     ??_PIN_MANAGER_Initialize:	
  2063                           ; 0 bytes @ 0x2
  2064                           
  2065  0072                     ?_ADC_GetConversion:	
  2066                           ; 0 bytes @ 0x2
  2067                           
  2068  0072                     ?___wmul:	
  2069                           ; 2 bytes @ 0x2
  2070                           
  2071  0072                     ?___lwmod:	
  2072                           ; 2 bytes @ 0x2
  2073                           
  2074  0072                     GetStringReverse@buff:	
  2075                           ; 2 bytes @ 0x2
  2076                           
  2077  0072                     Display_put@dig:	
  2078                           ; 1 bytes @ 0x2
  2079                           
  2080  0072                     ___wmul@multiplier:	
  2081                           ; 2 bytes @ 0x2
  2082                           
  2083  0072                     ___lwmod@divisor:	
  2084                           ; 2 bytes @ 0x2
  2085                           
  2086                           
  2087                           ; 2 bytes @ 0x2
  2088  0072                     	ds	1
  2089  0073                     ??_GetStringReverse:	
  2090  0073                     ??_SYSTEM_Initialize:	
  2091                           ; 0 bytes @ 0x3
  2092                           
  2093                           
  2094                           ; 0 bytes @ 0x3
  2095  0073                     	ds	1
  2096  0074                     ??_Display_put:	
  2097  0074                     ??_ADC_GetConversion:	
  2098                           ; 0 bytes @ 0x4
  2099                           
  2100  0074                     GetStringReverse@str:	
  2101                           ; 0 bytes @ 0x4
  2102                           
  2103  0074                     ___wmul@multiplicand:	
  2104                           ; 1 bytes @ 0x4
  2105                           
  2106  0074                     ___lwmod@dividend:	
  2107                           ; 2 bytes @ 0x4
  2108                           
  2109                           
  2110                           ; 2 bytes @ 0x4
  2111  0074                     	ds	1
  2112  0075                     ADC_GetConversion@channel:	
  2113  0075                     GetStringReverse@i:	
  2114                           ; 1 bytes @ 0x5
  2115                           
  2116                           
  2117                           ; 2 bytes @ 0x5
  2118  0075                     	ds	1
  2119  0076                     ??___wmul:	
  2120  0076                     ??___lwmod:	
  2121                           ; 0 bytes @ 0x6
  2122                           
  2123  0076                     Display_put@digit:	
  2124                           ; 0 bytes @ 0x6
  2125                           
  2126  0076                     ___wmul@product:	
  2127                           ; 1 bytes @ 0x6
  2128                           
  2129                           
  2130                           ; 2 bytes @ 0x6
  2131  0076                     	ds	1
  2132  0077                     Display_put@i:	
  2133  0077                     GetStringReverse@rptr:	
  2134                           ; 1 bytes @ 0x7
  2135                           
  2136  0077                     ___lwmod@counter:	
  2137                           ; 1 bytes @ 0x7
  2138                           
  2139                           
  2140                           ; 1 bytes @ 0x7
  2141  0077                     	ds	1
  2142  0078                     ??___lwdiv:	
  2143  0078                     GetStringReverse@sptr:	
  2144                           ; 0 bytes @ 0x8
  2145                           
  2146                           
  2147                           ; 1 bytes @ 0x8
  2148  0078                     	ds	1
  2149  0079                     ??_utoa:	
  2150                           
  2151                           ; 0 bytes @ 0x9
  2152  0079                     	ds	1
  2153  007A                     ??_main:	
  2154                           
  2155                           	psect	cstackBANK0
  2156  0020                     __pcstackBANK0:	
  2157                           ; 0 bytes @ 0xA
  2158                           
  2159  0020                     ?___lwdiv:	
  2160  0020                     ___lwdiv@divisor:	
  2161                           ; 2 bytes @ 0x0
  2162                           
  2163                           
  2164                           ; 2 bytes @ 0x0
  2165  0020                     	ds	2
  2166  0022                     ___lwdiv@dividend:	
  2167                           
  2168                           ; 2 bytes @ 0x2
  2169  0022                     	ds	2
  2170  0024                     ___lwdiv@counter:	
  2171                           
  2172                           ; 1 bytes @ 0x4
  2173  0024                     	ds	1
  2174  0025                     ___lwdiv@quotient:	
  2175                           
  2176                           ; 2 bytes @ 0x5
  2177  0025                     	ds	2
  2178  0027                     ?_utoa:	
  2179  0027                     ?_ReadWaterLevel:	
  2180                           ; 1 bytes @ 0x7
  2181                           
  2182  0027                     utoa@val:	
  2183                           ; 2 bytes @ 0x7
  2184                           
  2185                           
  2186                           ; 2 bytes @ 0x7
  2187  0027                     	ds	2
  2188  0029                     ??_ReadWaterLevel:	
  2189  0029                     utoa@base:	
  2190                           ; 0 bytes @ 0x9
  2191                           
  2192                           
  2193                           ; 2 bytes @ 0x9
  2194  0029                     	ds	2
  2195  002B                     utoa@v:	
  2196  002B                     _ReadWaterLevel$879:	
  2197                           ; 2 bytes @ 0xB
  2198                           
  2199                           
  2200                           ; 2 bytes @ 0xB
  2201  002B                     	ds	2
  2202  002D                     utoa@c:	
  2203  002D                     ReadWaterLevel@adcValue:	
  2204                           ; 1 bytes @ 0xD
  2205                           
  2206                           
  2207                           ; 2 bytes @ 0xD
  2208  002D                     	ds	1
  2209  002E                     utoa@buf:	
  2210                           
  2211                           ; 1 bytes @ 0xE
  2212  002E                     	ds	1
  2213  002F                     ?_itoa:	
  2214  002F                     ?_WaterLevel_Lookup:	
  2215                           ; 1 bytes @ 0xF
  2216                           
  2217  002F                     WaterLevel_Lookup@zeroSet:	
  2218                           ; 1 bytes @ 0xF
  2219                           
  2220  002F                     itoa@val:	
  2221                           ; 2 bytes @ 0xF
  2222                           
  2223                           
  2224                           ; 2 bytes @ 0xF
  2225  002F                     	ds	2
  2226  0031                     WaterLevel_Lookup@stepLitre:	
  2227  0031                     itoa@base:	
  2228                           ; 1 bytes @ 0x11
  2229                           
  2230                           
  2231                           ; 2 bytes @ 0x11
  2232  0031                     	ds	1
  2233  0032                     ??_WaterLevel_Lookup:	
  2234                           
  2235                           ; 0 bytes @ 0x12
  2236  0032                     	ds	1
  2237  0033                     ??_itoa:	
  2238                           
  2239                           ; 0 bytes @ 0x13
  2240  0033                     	ds	1
  2241  0034                     itoa@cp:	
  2242                           
  2243                           ; 1 bytes @ 0x14
  2244  0034                     	ds	1
  2245  0035                     WaterLevel_Lookup@waterLevelLookup:	
  2246  0035                     itoa@buf:	
  2247                           ; 1 bytes @ 0x15
  2248                           
  2249                           
  2250                           ; 1 bytes @ 0x15
  2251  0035                     	ds	1
  2252  0036                     ?_Display_value:	
  2253  0036                     Display_value@value:	
  2254                           ; 0 bytes @ 0x16
  2255                           
  2256  0036                     WaterLevel_Lookup@waterLevelRead:	
  2257                           ; 2 bytes @ 0x16
  2258                           
  2259                           
  2260                           ; 2 bytes @ 0x16
  2261  0036                     	ds	2
  2262  0038                     ??_Display_value:	
  2263                           
  2264                           ; 0 bytes @ 0x18
  2265  0038                     	ds	2
  2266  003A                     Display_value@myBuffer:	
  2267                           
  2268                           ; 6 bytes @ 0x1A
  2269  003A                     	ds	6
  2270  0040                     Display_value@numChar:	
  2271                           
  2272                           ; 6 bytes @ 0x20
  2273  0040                     	ds	6
  2274  0046                     Display_value@number:	
  2275                           
  2276                           ; 2 bytes @ 0x26
  2277  0046                     	ds	2
  2278  0048                     Display_value@i:	
  2279                           
  2280                           ; 1 bytes @ 0x28
  2281  0048                     	ds	1
  2282  0049                     ??_WaterLevelDisplay_StateMachine:	
  2283                           
  2284                           ; 0 bytes @ 0x29
  2285  0049                     	ds	2
  2286                           
  2287                           	psect	maintext
  2288  04DA                     __pmaintext:	
  2289 ;;
  2290 ;;Main: autosize = 0, tempsize = 0, incstack = 0, save=0
  2291 ;;
  2292 ;; *************** function _main *****************
  2293 ;; Defined at:
  2294 ;;		line 52 in file "main.c"
  2295 ;; Parameters:    Size  Location     Type
  2296 ;;		None
  2297 ;; Auto vars:     Size  Location     Type
  2298 ;;		None
  2299 ;; Return value:  Size  Location     Type
  2300 ;;		None               void
  2301 ;; Registers used:
  2302 ;;		wreg, fsr0l, fsr0h, fsr1l, fsr1h, status,2, status,0, pclath, cstack
  2303 ;; Tracked objects:
  2304 ;;		On entry : B1F/0
  2305 ;;		On exit  : 0/0
  2306 ;;		Unchanged: 0/0
  2307 ;; Data sizes:     COMMON   BANK0   BANK1
  2308 ;;      Params:         0       0       0
  2309 ;;      Locals:         0       0       0
  2310 ;;      Temps:          0       0       0
  2311 ;;      Totals:         0       0       0
  2312 ;;Total ram usage:        0 bytes
  2313 ;; Hardware stack levels required when called:    8
  2314 ;; This function calls:
  2315 ;;		_SYSTEM_Initialize
  2316 ;;		_WaterLevelDisplay_StateMachine
  2317 ;; This function is called by:
  2318 ;;		Startup code after reset
  2319 ;; This function uses a non-reentrant model
  2320 ;;
  2321                           
  2322                           
  2323                           ;psect for function _main
  2324  04DA                     _main:	
  2325                           
  2326                           ;main.c: 54: SYSTEM_Initialize();
  2327                           
  2328                           ;incstack = 0
  2329                           ; Regs used in _main: [wreg-fsr1h+status,2+status,0+pclath+cstack]
  2330  04DA  24CE               	fcall	_SYSTEM_Initialize
  2331                           
  2332                           ;main.c: 60: (INTCONbits.GIE = 1);
  2333  04DB  178B               	bsf	11,7	;volatile
  2334                           
  2335                           ;main.c: 63: (INTCONbits.PEIE = 1);
  2336  04DC  170B               	bsf	11,6	;volatile
  2337  04DD                     l1550:	
  2338                           ;main.c: 71: while (1)
  2339                           
  2340                           
  2341                           ;main.c: 72: {
  2342                           ;main.c: 73: WaterLevelDisplay_StateMachine();
  2343  04DD  2284               	fcall	_WaterLevelDisplay_StateMachine
  2344  04DE  2CDD               	goto	l1550
  2345  04DF                     __end_of_main:	
  2346                           
  2347                           	psect	text1
  2348  0284                     __ptext1:	
  2349 ;; *************** function _WaterLevelDisplay_StateMachine *****************
  2350 ;; Defined at:
  2351 ;;		line 14 in file "water_level_display/water_level_display.c"
  2352 ;; Parameters:    Size  Location     Type
  2353 ;;		None
  2354 ;; Auto vars:     Size  Location     Type
  2355 ;;		None
  2356 ;; Return value:  Size  Location     Type
  2357 ;;		None               void
  2358 ;; Registers used:
  2359 ;;		wreg, fsr0l, fsr0h, fsr1l, fsr1h, status,2, status,0, pclath, cstack
  2360 ;; Tracked objects:
  2361 ;;		On entry : 0/0
  2362 ;;		On exit  : 0/0
  2363 ;;		Unchanged: 0/0
  2364 ;; Data sizes:     COMMON   BANK0   BANK1
  2365 ;;      Params:         0       0       0
  2366 ;;      Locals:         0       0       0
  2367 ;;      Temps:          0       2       0
  2368 ;;      Totals:         0       2       0
  2369 ;;Total ram usage:        2 bytes
  2370 ;; Hardware stack levels used:    1
  2371 ;; Hardware stack levels required when called:    7
  2372 ;; This function calls:
  2373 ;;		_Display_value
  2374 ;;		_WaterLevel_Lookup
  2375 ;; This function is called by:
  2376 ;;		_main
  2377 ;; This function uses a non-reentrant model
  2378 ;;
  2379                           
  2380                           
  2381                           ;psect for function _WaterLevelDisplay_StateMachine
  2382  0284                     _WaterLevelDisplay_StateMachine:	
  2383                           
  2384                           ;water_level_display.c: 16: switch(wlData.states)
  2385                           
  2386                           ;incstack = 0
  2387                           ; Regs used in _WaterLevelDisplay_StateMachine: [wreg-fsr1h+status,2+status,0+pclath+cst
      +                          ack]
  2388  0284  2ACC               	goto	l1542
  2389  0285                     l1516:	
  2390                           ;water_level_display.c: 17: {
  2391                           ;water_level_display.c: 18: case INITIALIZE:
  2392                           
  2393                           
  2394                           ;water_level_display.c: 19: {
  2395                           ;water_level_display.c: 20: wlData.zero_offset = 400;
  2396  0285  3090               	movlw	144
  2397  0286  0020               	movlb	0	; select bank0
  2398  0287  00D8               	movwf	_wlData+1
  2399  0288  3001               	movlw	1
  2400  0289  00D9               	movwf	_wlData+2
  2401                           
  2402                           ;water_level_display.c: 21: wlData.liter_per_step = 8;
  2403  028A  3008               	movlw	8
  2404  028B  00C9               	movwf	??_WaterLevelDisplay_StateMachine
  2405  028C  0849               	movf	??_WaterLevelDisplay_StateMachine,w
  2406  028D  00DA               	movwf	_wlData+3
  2407                           
  2408                           ;water_level_display.c: 22: wlData.lookup=0;
  2409  028E  01DB               	clrf	_wlData+4
  2410                           
  2411                           ;water_level_display.c: 23: wlData.lookup_old=1;
  2412  028F  01DC               	clrf	_wlData+5
  2413  0290  0ADC               	incf	_wlData+5,f
  2414                           
  2415                           ;water_level_display.c: 24: wlData.states=LEVEL_DISPLAY;
  2416  0291  3002               	movlw	2
  2417  0292  00C9               	movwf	??_WaterLevelDisplay_StateMachine
  2418  0293  0849               	movf	??_WaterLevelDisplay_StateMachine,w
  2419  0294  00D7               	movwf	_wlData
  2420                           
  2421                           ;water_level_display.c: 25: break;
  2422  0295  0008               	return
  2423  0296                     l1524:	
  2424                           ;water_level_display.c: 26: }
  2425                           ;water_level_display.c: 27: case LEVEL_DISPLAY:
  2426                           
  2427                           
  2428                           ;water_level_display.c: 28: {
  2429                           ;water_level_display.c: 29: wlData.lookup=WaterLevel_Lookup(wlData.zero_offset, wlData.l
      +                          iter_per_step);
  2430  0296  0859               	movf	_wlData+2,w
  2431  0297  00B0               	movwf	WaterLevel_Lookup@zeroSet+1
  2432  0298  0858               	movf	_wlData+1,w
  2433  0299  00AF               	movwf	WaterLevel_Lookup@zeroSet
  2434  029A  085A               	movf	_wlData+3,w
  2435  029B  00C9               	movwf	??_WaterLevelDisplay_StateMachine
  2436  029C  0849               	movf	??_WaterLevelDisplay_StateMachine,w
  2437  029D  00B1               	movwf	WaterLevel_Lookup@stepLitre
  2438  029E  23FD               	fcall	_WaterLevel_Lookup
  2439  029F  0020               	movlb	0	; select bank0
  2440  02A0  00CA               	movwf	??_WaterLevelDisplay_StateMachine+1
  2441  02A1  084A               	movf	??_WaterLevelDisplay_StateMachine+1,w
  2442  02A2  00DB               	movwf	_wlData+4
  2443                           
  2444                           ;water_level_display.c: 30: if(wlData.lookup != wlData.lookup_old)
  2445  02A3  085B               	movf	_wlData+4,w
  2446  02A4  065C               	xorwf	_wlData+5,w
  2447  02A5  1903               	skipnz
  2448  02A6  2AC7               	goto	l1538
  2449                           
  2450                           ;water_level_display.c: 31: {
  2451                           ;water_level_display.c: 32: if((wlData.lookup > 0) && (wlData.lookup < 201))
  2452  02A7  085B               	movf	_wlData+4,w
  2453  02A8  1903               	btfsc	3,2
  2454  02A9  2ABD               	goto	l1534
  2455  02AA  30C9               	movlw	201
  2456  02AB  025B               	subwf	_wlData+4,w
  2457  02AC  1803               	skipnc
  2458  02AD  2ABD               	goto	l1534
  2459                           
  2460                           ;water_level_display.c: 33: {
  2461                           ;water_level_display.c: 34: Display_value(WaterLevelLookup[wlData.lookup]);
  2462  02AE  085B               	movf	_wlData+4,w
  2463  02AF  00C9               	movwf	??_WaterLevelDisplay_StateMachine
  2464  02B0  01CA               	clrf	??_WaterLevelDisplay_StateMachine+1
  2465  02B1  35C9               	lslf	??_WaterLevelDisplay_StateMachine,f
  2466  02B2  0DCA               	rlf	??_WaterLevelDisplay_StateMachine+1,f
  2467  02B3  3029               	movlw	low (_WaterLevelLookup| (0+32768))
  2468  02B4  0749               	addwf	??_WaterLevelDisplay_StateMachine,w
  2469  02B5  0084               	movwf	4
  2470  02B6  3080               	movlw	high (_WaterLevelLookup| (0+32768))
  2471  02B7  3D4A               	addwfc	??_WaterLevelDisplay_StateMachine+1,w
  2472  02B8  0085               	movwf	5
  2473  02B9  3F00               	moviw [0]fsr0
  2474  02BA  00B6               	movwf	Display_value@value
  2475  02BB  3F01               	moviw [1]fsr0
  2476  02BC  2AC0               	goto	L1
  2477  02BD                     l1534:	
  2478                           ;water_level_display.c: 35: }
  2479                           
  2480                           
  2481                           ;water_level_display.c: 36: else
  2482                           ;water_level_display.c: 37: {
  2483                           ;water_level_display.c: 38: Display_value(0);
  2484  02BD  3000               	movlw	0
  2485  02BE  0020               	movlb	0	; select bank0
  2486  02BF  00B6               	movwf	Display_value@value
  2487  02C0                     L1:	
  2488  02C0  00B7               	movwf	Display_value@value+1
  2489  02C1  21C4               	fcall	_Display_value
  2490                           
  2491                           ;water_level_display.c: 39: }
  2492                           ;water_level_display.c: 40: wlData.lookup_old = wlData.lookup;
  2493  02C2  0020               	movlb	0	; select bank0
  2494  02C3  085B               	movf	_wlData+4,w
  2495  02C4  00C9               	movwf	??_WaterLevelDisplay_StateMachine
  2496  02C5  0849               	movf	??_WaterLevelDisplay_StateMachine,w
  2497  02C6  00DC               	movwf	_wlData+5
  2498  02C7                     l1538:	
  2499                           
  2500                           ;water_level_display.c: 41: }
  2501                           ;water_level_display.c: 42: wlData.states=IDLE;
  2502  02C7  3003               	movlw	3
  2503  02C8  00C9               	movwf	??_WaterLevelDisplay_StateMachine
  2504  02C9  0849               	movf	??_WaterLevelDisplay_StateMachine,w
  2505  02CA  00D7               	movwf	_wlData
  2506                           
  2507                           ;water_level_display.c: 48: }
  2508                           ;water_level_display.c: 49: }
  2509                           
  2510                           ;water_level_display.c: 46: {
  2511                           ;water_level_display.c: 47: break;
  2512                           
  2513                           ;water_level_display.c: 44: }
  2514                           ;water_level_display.c: 45: case IDLE:
  2515                           
  2516                           ;water_level_display.c: 43: break;
  2517  02CB  0008               	return
  2518  02CC                     l1542:	
  2519  02CC  0020               	movlb	0	; select bank0
  2520  02CD  0857               	movf	_wlData,w
  2521                           
  2522                           ; Switch size 1, requested type "space"
  2523                           ; Number of cases is 3, Range of values is 0 to 3
  2524                           ; switch strategies available:
  2525                           ; Name         Instructions Cycles
  2526                           ; simple_byte           10     6 (average)
  2527                           ; direct_byte           14     6 (fixed)
  2528                           ; jumptable            260     6 (fixed)
  2529                           ;	Chosen strategy is simple_byte
  2530  02CE  3A00               	xorlw	0	; case 0
  2531  02CF  1903               	skipnz
  2532  02D0  2A85               	goto	l1516
  2533  02D1  3A02               	xorlw	2	; case 2
  2534  02D2  1903               	skipnz
  2535  02D3  2A96               	goto	l1524
  2536  02D4  3A01               	xorlw	1	; case 3
  2537  02D5  1903               	skipnz
  2538  02D6  2AD8               	goto	l256
  2539  02D7  2AD8               	goto	l256
  2540  02D8                     l256:	
  2541  02D8  0008               	return
  2542  02D9                     __end_of_WaterLevelDisplay_StateMachine:	
  2543                           
  2544                           	psect	text2
  2545  03FD                     __ptext2:	
  2546 ;; *************** function _WaterLevel_Lookup *****************
  2547 ;; Defined at:
  2548 ;;		line 21 in file "water_level_display/water_level_conversion.c"
  2549 ;; Parameters:    Size  Location     Type
  2550 ;;  zeroSet         2   15[BANK0 ] unsigned int 
  2551 ;;  stepLitre       1   17[BANK0 ] unsigned char 
  2552 ;; Auto vars:     Size  Location     Type
  2553 ;;  waterLevelRe    2   22[BANK0 ] unsigned int 
  2554 ;;  waterLevelLo    1   21[BANK0 ] unsigned char 
  2555 ;; Return value:  Size  Location     Type
  2556 ;;                  1    wreg      unsigned char 
  2557 ;; Registers used:
  2558 ;;		wreg, status,2, status,0, pclath, cstack
  2559 ;; Tracked objects:
  2560 ;;		On entry : 0/0
  2561 ;;		On exit  : 0/0
  2562 ;;		Unchanged: 0/0
  2563 ;; Data sizes:     COMMON   BANK0   BANK1
  2564 ;;      Params:         0       3       0
  2565 ;;      Locals:         0       3       0
  2566 ;;      Temps:          0       3       0
  2567 ;;      Totals:         0       9       0
  2568 ;;Total ram usage:        9 bytes
  2569 ;; Hardware stack levels used:    1
  2570 ;; Hardware stack levels required when called:    5
  2571 ;; This function calls:
  2572 ;;		_ReadWaterLevel
  2573 ;;		___lwdiv
  2574 ;; This function is called by:
  2575 ;;		_WaterLevelDisplay_StateMachine
  2576 ;; This function uses a non-reentrant model
  2577 ;;
  2578                           
  2579                           
  2580                           ;psect for function _WaterLevel_Lookup
  2581  03FD                     _WaterLevel_Lookup:	
  2582                           
  2583                           ;water_level_conversion.c: 23: uint16_t waterLevelRead=0;
  2584                           
  2585                           ;incstack = 0
  2586                           ; Regs used in _WaterLevel_Lookup: [wreg+status,2+status,0+pclath+cstack]
  2587  03FD  0020               	movlb	0	; select bank0
  2588  03FE  01B6               	clrf	WaterLevel_Lookup@waterLevelRead
  2589  03FF  01B7               	clrf	WaterLevel_Lookup@waterLevelRead+1
  2590                           
  2591                           ;water_level_conversion.c: 24: uint8_t waterLevelLookup=0;
  2592  0400  01B5               	clrf	WaterLevel_Lookup@waterLevelLookup
  2593                           
  2594                           ;water_level_conversion.c: 25: waterLevelRead=ReadWaterLevel();
  2595  0401  22D9               	fcall	_ReadWaterLevel
  2596  0402  0020               	movlb	0	; select bank0
  2597  0403  0828               	movf	?_ReadWaterLevel+1,w
  2598  0404  00B7               	movwf	WaterLevel_Lookup@waterLevelRead+1
  2599  0405  0827               	movf	?_ReadWaterLevel,w
  2600  0406  00B6               	movwf	WaterLevel_Lookup@waterLevelRead
  2601                           
  2602                           ;water_level_conversion.c: 26: waterLevelRead = waterLevelRead - zeroSet;
  2603  0407  092F               	comf	WaterLevel_Lookup@zeroSet,w
  2604  0408  00B2               	movwf	??_WaterLevel_Lookup
  2605  0409  0930               	comf	WaterLevel_Lookup@zeroSet+1,w
  2606  040A  00B3               	movwf	??_WaterLevel_Lookup+1
  2607  040B  0AB2               	incf	??_WaterLevel_Lookup,f
  2608  040C  1903               	skipnz
  2609  040D  0AB3               	incf	??_WaterLevel_Lookup+1,f
  2610  040E  0836               	movf	WaterLevel_Lookup@waterLevelRead,w
  2611  040F  0732               	addwf	??_WaterLevel_Lookup,w
  2612  0410  00B6               	movwf	WaterLevel_Lookup@waterLevelRead
  2613  0411  0837               	movf	WaterLevel_Lookup@waterLevelRead+1,w
  2614  0412  3D33               	addwfc	??_WaterLevel_Lookup+1,w
  2615  0413  00B7               	movwf	WaterLevel_Lookup@waterLevelRead+1
  2616                           
  2617                           ;water_level_conversion.c: 27: waterLevelLookup = waterLevelRead / stepLitre;
  2618  0414  0831               	movf	WaterLevel_Lookup@stepLitre,w
  2619  0415  00B2               	movwf	??_WaterLevel_Lookup
  2620  0416  01B3               	clrf	??_WaterLevel_Lookup+1
  2621  0417  0832               	movf	??_WaterLevel_Lookup,w
  2622  0418  00A0               	movwf	___lwdiv@divisor
  2623  0419  0833               	movf	??_WaterLevel_Lookup+1,w
  2624  041A  00A1               	movwf	___lwdiv@divisor+1
  2625  041B  0837               	movf	WaterLevel_Lookup@waterLevelRead+1,w
  2626  041C  00A3               	movwf	___lwdiv@dividend+1
  2627  041D  0836               	movf	WaterLevel_Lookup@waterLevelRead,w
  2628  041E  00A2               	movwf	___lwdiv@dividend
  2629  041F  2367               	fcall	___lwdiv
  2630  0420  0020               	movlb	0	; select bank0
  2631  0421  0820               	movf	?___lwdiv,w
  2632  0422  00B4               	movwf	??_WaterLevel_Lookup+2
  2633  0423  0834               	movf	??_WaterLevel_Lookup+2,w
  2634  0424  00B5               	movwf	WaterLevel_Lookup@waterLevelLookup
  2635                           
  2636                           ;water_level_conversion.c: 28: return waterLevelLookup;
  2637  0425  0835               	movf	WaterLevel_Lookup@waterLevelLookup,w
  2638  0426  0008               	return
  2639  0427                     __end_of_WaterLevel_Lookup:	
  2640                           
  2641                           	psect	text3
  2642  02D9                     __ptext3:	
  2643 ;; *************** function _ReadWaterLevel *****************
  2644 ;; Defined at:
  2645 ;;		line 13 in file "water_level_display/water_level_conversion.c"
  2646 ;; Parameters:    Size  Location     Type
  2647 ;;		None
  2648 ;; Auto vars:     Size  Location     Type
  2649 ;;  adcValue        2   13[BANK0 ] unsigned int 
  2650 ;; Return value:  Size  Location     Type
  2651 ;;                  2    7[BANK0 ] unsigned int 
  2652 ;; Registers used:
  2653 ;;		wreg, status,2, status,0, pclath, cstack
  2654 ;; Tracked objects:
  2655 ;;		On entry : 0/0
  2656 ;;		On exit  : 0/0
  2657 ;;		Unchanged: 0/0
  2658 ;; Data sizes:     COMMON   BANK0   BANK1
  2659 ;;      Params:         0       2       0
  2660 ;;      Locals:         0       4       0
  2661 ;;      Temps:          0       2       0
  2662 ;;      Totals:         0       8       0
  2663 ;;Total ram usage:        8 bytes
  2664 ;; Hardware stack levels used:    1
  2665 ;; Hardware stack levels required when called:    4
  2666 ;; This function calls:
  2667 ;;		_ADC_GetConversion
  2668 ;;		___lwdiv
  2669 ;;		___wmul
  2670 ;; This function is called by:
  2671 ;;		_WaterLevel_Lookup
  2672 ;; This function uses a non-reentrant model
  2673 ;;
  2674                           
  2675                           
  2676                           ;psect for function _ReadWaterLevel
  2677  02D9                     _ReadWaterLevel:	
  2678                           
  2679                           ;water_level_conversion.c: 15: uint16_t adcValue=0;
  2680                           
  2681                           ;incstack = 0
  2682                           ; Regs used in _ReadWaterLevel: [wreg+status,2+status,0+pclath+cstack]
  2683  02D9  0020               	movlb	0	; select bank0
  2684  02DA  01AD               	clrf	ReadWaterLevel@adcValue
  2685  02DB  01AE               	clrf	ReadWaterLevel@adcValue+1
  2686                           
  2687                           ;water_level_conversion.c: 16: adcValue=ADC_GetConversion(WAT_LEVEL_AN);
  2688  02DC  3002               	movlw	2
  2689  02DD  2465               	fcall	_ADC_GetConversion
  2690  02DE  0873               	movf	?_ADC_GetConversion+1,w
  2691  02DF  0020               	movlb	0	; select bank0
  2692  02E0  00AE               	movwf	ReadWaterLevel@adcValue+1
  2693  02E1  0872               	movf	?_ADC_GetConversion,w
  2694  02E2  00AD               	movwf	ReadWaterLevel@adcValue
  2695                           
  2696                           ;water_level_conversion.c: 17: adcValue = (((((adcValue*50)/1024))*100)+(((adcValue*50)%
      +                          1024)/10));
  2697  02E3  3032               	movlw	50
  2698  02E4  00F4               	movwf	___wmul@multiplicand
  2699  02E5  3000               	movlw	0
  2700  02E6  00F5               	movwf	___wmul@multiplicand+1
  2701  02E7  082E               	movf	ReadWaterLevel@adcValue+1,w
  2702  02E8  00F3               	movwf	___wmul@multiplier+1
  2703  02E9  082D               	movf	ReadWaterLevel@adcValue,w
  2704  02EA  00F2               	movwf	___wmul@multiplier
  2705  02EB  244A               	fcall	___wmul
  2706  02EC  0872               	movf	?___wmul,w
  2707  02ED  0020               	movlb	0	; select bank0
  2708  02EE  00A9               	movwf	??_ReadWaterLevel
  2709  02EF  0873               	movf	?___wmul+1,w
  2710  02F0  00AA               	movwf	??_ReadWaterLevel+1
  2711  02F1  300A               	movlw	10
  2712  02F2                     u995:	
  2713  02F2  36AA               	lsrf	??_ReadWaterLevel+1,f
  2714  02F3  0CA9               	rrf	??_ReadWaterLevel,f
  2715  02F4  0B89               	decfsz	9,f
  2716  02F5  2AF2               	goto	u995
  2717  02F6  0829               	movf	??_ReadWaterLevel,w
  2718  02F7  00AB               	movwf	_ReadWaterLevel$879
  2719  02F8  082A               	movf	??_ReadWaterLevel+1,w
  2720  02F9  00AC               	movwf	_ReadWaterLevel$879+1
  2721                           
  2722                           ;water_level_conversion.c: 17: adcValue = (((((adcValue*50)/1024))*100)+(((adcValue*50)%
      +                          1024)/10));
  2723  02FA  082C               	movf	_ReadWaterLevel$879+1,w
  2724  02FB  00F3               	movwf	___wmul@multiplier+1
  2725  02FC  082B               	movf	_ReadWaterLevel$879,w
  2726  02FD  00F2               	movwf	___wmul@multiplier
  2727  02FE  3064               	movlw	100
  2728  02FF  00F4               	movwf	___wmul@multiplicand
  2729  0300  3000               	movlw	0
  2730  0301  00F5               	movwf	___wmul@multiplicand+1
  2731  0302  244A               	fcall	___wmul
  2732  0303  0872               	movf	?___wmul,w
  2733  0304  0020               	movlb	0	; select bank0
  2734  0305  00A9               	movwf	??_ReadWaterLevel
  2735  0306  0873               	movf	?___wmul+1,w
  2736  0307  00AA               	movwf	??_ReadWaterLevel+1
  2737  0308  300A               	movlw	10
  2738  0309  00A0               	movwf	___lwdiv@divisor
  2739  030A  3000               	movlw	0
  2740  030B  00A1               	movwf	___lwdiv@divisor+1
  2741  030C  3032               	movlw	50
  2742  030D  00F4               	movwf	___wmul@multiplicand
  2743  030E  3000               	movlw	0
  2744  030F  00F5               	movwf	___wmul@multiplicand+1
  2745  0310  082E               	movf	ReadWaterLevel@adcValue+1,w
  2746  0311  00F3               	movwf	___wmul@multiplier+1
  2747  0312  082D               	movf	ReadWaterLevel@adcValue,w
  2748  0313  00F2               	movwf	___wmul@multiplier
  2749  0314  244A               	fcall	___wmul
  2750  0315  30FF               	movlw	255
  2751  0316  0572               	andwf	?___wmul,w
  2752  0317  0020               	movlb	0	; select bank0
  2753  0318  00A2               	movwf	___lwdiv@dividend
  2754  0319  3003               	movlw	3
  2755  031A  0573               	andwf	?___wmul+1,w
  2756  031B  00A3               	movwf	___lwdiv@dividend+1
  2757  031C  2367               	fcall	___lwdiv
  2758  031D  0020               	movlb	0	; select bank0
  2759  031E  0820               	movf	?___lwdiv,w
  2760  031F  0729               	addwf	??_ReadWaterLevel,w
  2761  0320  00AD               	movwf	ReadWaterLevel@adcValue
  2762  0321  0821               	movf	?___lwdiv+1,w
  2763  0322  3D2A               	addwfc	??_ReadWaterLevel+1,w
  2764  0323  00AE               	movwf	ReadWaterLevel@adcValue+1
  2765                           
  2766                           ;water_level_conversion.c: 18: return adcValue;
  2767  0324  082E               	movf	ReadWaterLevel@adcValue+1,w
  2768  0325  00A8               	movwf	?_ReadWaterLevel+1
  2769  0326  082D               	movf	ReadWaterLevel@adcValue,w
  2770  0327  00A7               	movwf	?_ReadWaterLevel
  2771  0328  0008               	return
  2772  0329                     __end_of_ReadWaterLevel:	
  2773                           
  2774                           	psect	text4
  2775  044A                     __ptext4:	
  2776 ;; *************** function ___wmul *****************
  2777 ;; Defined at:
  2778 ;;		line 15 in file "C:\Program Files (x86)\Microchip\xc8\v1.35\sources\common\Umul16.c"
  2779 ;; Parameters:    Size  Location     Type
  2780 ;;  multiplier      2    2[COMMON] unsigned int 
  2781 ;;  multiplicand    2    4[COMMON] unsigned int 
  2782 ;; Auto vars:     Size  Location     Type
  2783 ;;  product         2    6[COMMON] unsigned int 
  2784 ;; Return value:  Size  Location     Type
  2785 ;;                  2    2[COMMON] unsigned int 
  2786 ;; Registers used:
  2787 ;;		wreg, status,2, status,0
  2788 ;; Tracked objects:
  2789 ;;		On entry : 0/0
  2790 ;;		On exit  : 0/0
  2791 ;;		Unchanged: 0/0
  2792 ;; Data sizes:     COMMON   BANK0   BANK1
  2793 ;;      Params:         4       0       0
  2794 ;;      Locals:         2       0       0
  2795 ;;      Temps:          0       0       0
  2796 ;;      Totals:         6       0       0
  2797 ;;Total ram usage:        6 bytes
  2798 ;; Hardware stack levels used:    1
  2799 ;; Hardware stack levels required when called:    3
  2800 ;; This function calls:
  2801 ;;		Nothing
  2802 ;; This function is called by:
  2803 ;;		_ReadWaterLevel
  2804 ;; This function uses a non-reentrant model
  2805 ;;
  2806                           
  2807                           
  2808                           ;psect for function ___wmul
  2809  044A                     ___wmul:	
  2810                           
  2811                           ;incstack = 0
  2812                           ; Regs used in ___wmul: [wreg+status,2+status,0]
  2813  044A  01F6               	clrf	___wmul@product
  2814  044B  01F7               	clrf	___wmul@product+1
  2815  044C                     l1144:	
  2816  044C  1C72               	btfss	___wmul@multiplier,0
  2817  044D  2C52               	goto	l284
  2818  044E  0874               	movf	___wmul@multiplicand,w
  2819  044F  07F6               	addwf	___wmul@product,f
  2820  0450  0875               	movf	___wmul@multiplicand+1,w
  2821  0451  3DF7               	addwfc	___wmul@product+1,f
  2822  0452                     l284:	
  2823  0452  3001               	movlw	1
  2824  0453                     u605:	
  2825  0453  35F4               	lslf	___wmul@multiplicand,f
  2826  0454  0DF5               	rlf	___wmul@multiplicand+1,f
  2827  0455  0B89               	decfsz	9,f
  2828  0456  2C53               	goto	u605
  2829  0457  3001               	movlw	1
  2830  0458                     u615:	
  2831  0458  36F3               	lsrf	___wmul@multiplier+1,f
  2832  0459  0CF2               	rrf	___wmul@multiplier,f
  2833  045A  0B89               	decfsz	9,f
  2834  045B  2C58               	goto	u615
  2835  045C  0872               	movf	___wmul@multiplier,w
  2836  045D  0473               	iorwf	___wmul@multiplier+1,w
  2837  045E  1D03               	btfss	3,2
  2838  045F  2C4C               	goto	l1144
  2839  0460  0877               	movf	___wmul@product+1,w
  2840  0461  00F3               	movwf	?___wmul+1
  2841  0462  0876               	movf	___wmul@product,w
  2842  0463  00F2               	movwf	?___wmul
  2843  0464  0008               	return
  2844  0465                     __end_of___wmul:	
  2845                           
  2846                           	psect	text5
  2847  0465                     __ptext5:	
  2848 ;; *************** function _ADC_GetConversion *****************
  2849 ;; Defined at:
  2850 ;;		line 109 in file "mcc_generated_files/adc.c"
  2851 ;; Parameters:    Size  Location     Type
  2852 ;;  channel         1    wreg     enum E2933
  2853 ;; Auto vars:     Size  Location     Type
  2854 ;;  channel         1    5[COMMON] enum E2933
  2855 ;; Return value:  Size  Location     Type
  2856 ;;                  2    2[COMMON] unsigned int 
  2857 ;; Registers used:
  2858 ;;		wreg, status,2, status,0
  2859 ;; Tracked objects:
  2860 ;;		On entry : 0/0
  2861 ;;		On exit  : 0/0
  2862 ;;		Unchanged: 0/0
  2863 ;; Data sizes:     COMMON   BANK0   BANK1
  2864 ;;      Params:         2       0       0
  2865 ;;      Locals:         1       0       0
  2866 ;;      Temps:          1       0       0
  2867 ;;      Totals:         4       0       0
  2868 ;;Total ram usage:        4 bytes
  2869 ;; Hardware stack levels used:    1
  2870 ;; Hardware stack levels required when called:    3
  2871 ;; This function calls:
  2872 ;;		Nothing
  2873 ;; This function is called by:
  2874 ;;		_ReadWaterLevel
  2875 ;; This function uses a non-reentrant model
  2876 ;;
  2877                           
  2878                           
  2879                           ;psect for function _ADC_GetConversion
  2880  0465                     _ADC_GetConversion:	
  2881                           
  2882                           ;incstack = 0
  2883                           ; Regs used in _ADC_GetConversion: [wreg+status,2+status,0]
  2884                           ;ADC_GetConversion@channel stored from wreg
  2885  0465  00F5               	movwf	ADC_GetConversion@channel
  2886                           
  2887                           ;adc.c: 111: ADCON0bits.CHS = channel;
  2888  0466  0875               	movf	ADC_GetConversion@channel,w
  2889  0467  00F4               	movwf	??_ADC_GetConversion
  2890  0468  0DF4               	rlf	??_ADC_GetConversion,f
  2891  0469  0DF4               	rlf	??_ADC_GetConversion,f
  2892  046A  0021               	movlb	1	; select bank1
  2893  046B  081D               	movf	29,w	;volatile
  2894  046C  0674               	xorwf	??_ADC_GetConversion,w
  2895  046D  3983               	andlw	-125
  2896  046E  0674               	xorwf	??_ADC_GetConversion,w
  2897  046F  009D               	movwf	29	;volatile
  2898                           
  2899                           ;adc.c: 114: ADCON0bits.ADON = 1;
  2900  0470  141D               	bsf	29,0	;volatile
  2901                           
  2902                           ;adc.c: 117: _delay((unsigned long)((5)*(16000000/4000000.0)));
  2903  0471  3006               	movlw	6
  2904  0472  00F4               	movwf	??_ADC_GetConversion
  2905  0473                     u1087:	
  2906  0473  0BF4               	decfsz	??_ADC_GetConversion,f
  2907  0474  2C73               	goto	u1087
  2908  0475  0000               	nop
  2909                           
  2910                           ;adc.c: 120: ADCON0bits.GO_nDONE = 1;
  2911  0476  0021               	movlb	1	; select bank1
  2912  0477  149D               	bsf	29,1	;volatile
  2913  0478                     l131:	
  2914                           ;adc.c: 123: while (ADCON0bits.GO_nDONE) {
  2915                           
  2916  0478  189D               	btfsc	29,1	;volatile
  2917  0479  2C78               	goto	l131
  2918                           
  2919                           ;adc.c: 124: }
  2920                           ;adc.c: 127: return ((ADRESH << 8) + ADRESL);
  2921  047A  081C               	movf	28,w	;volatile
  2922  047B  00F3               	movwf	?_ADC_GetConversion+1
  2923  047C  081B               	movf	27,w	;volatile
  2924  047D  00F2               	movwf	?_ADC_GetConversion
  2925  047E  0008               	return
  2926  047F                     __end_of_ADC_GetConversion:	
  2927                           
  2928                           	psect	text6
  2929  01C4                     __ptext6:	
  2930 ;; *************** function _Display_value *****************
  2931 ;; Defined at:
  2932 ;;		line 11 in file "drv_74hc595/drv_74hc595.c"
  2933 ;; Parameters:    Size  Location     Type
  2934 ;;  value           2   22[BANK0 ] unsigned int 
  2935 ;; Auto vars:     Size  Location     Type
  2936 ;;  numChar         6   32[BANK0 ] unsigned char [6]
  2937 ;;  myBuffer        6   26[BANK0 ] unsigned char [6]
  2938 ;;  number          2   38[BANK0 ] unsigned int 
  2939 ;;  i               1   40[BANK0 ] unsigned char 
  2940 ;; Return value:  Size  Location     Type
  2941 ;;		None               void
  2942 ;; Registers used:
  2943 ;;		wreg, fsr0l, fsr0h, fsr1l, fsr1h, status,2, status,0, pclath, cstack
  2944 ;; Tracked objects:
  2945 ;;		On entry : 0/0
  2946 ;;		On exit  : 0/0
  2947 ;;		Unchanged: 0/0
  2948 ;; Data sizes:     COMMON   BANK0   BANK1
  2949 ;;      Params:         0       2       0
  2950 ;;      Locals:         0      15       0
  2951 ;;      Temps:          0       2       0
  2952 ;;      Totals:         0      19       0
  2953 ;;Total ram usage:       19 bytes
  2954 ;; Hardware stack levels used:    1
  2955 ;; Hardware stack levels required when called:    6
  2956 ;; This function calls:
  2957 ;;		_Display_put
  2958 ;;		_GetStringReverse
  2959 ;;		_itoa
  2960 ;; This function is called by:
  2961 ;;		_WaterLevelDisplay_StateMachine
  2962 ;; This function uses a non-reentrant model
  2963 ;;
  2964                           
  2965                           
  2966                           ;psect for function _Display_value
  2967  01C4                     _Display_value:	
  2968                           
  2969                           ;drv_74hc595.c: 13: uint8_t i=0;
  2970                           
  2971                           ;incstack = 0
  2972                           ; Regs used in _Display_value: [wreg-fsr1h+status,2+status,0+pclath+cstack]
  2973  01C4  0020               	movlb	0	; select bank0
  2974  01C5  01C8               	clrf	Display_value@i
  2975                           
  2976                           ;drv_74hc595.c: 14: uint16_t number = value;
  2977  01C6  0837               	movf	Display_value@value+1,w
  2978  01C7  00C7               	movwf	Display_value@number+1
  2979  01C8  0836               	movf	Display_value@value,w
  2980  01C9  00C6               	movwf	Display_value@number
  2981                           
  2982                           ;drv_74hc595.c: 15: char myBuffer[6]={'\0'};
  2983  01CA  304B               	movlw	low Display_value@F3236
  2984  01CB  0086               	movwf	6
  2985  01CC  3000               	movlw	high Display_value@F3236
  2986  01CD  0087               	movwf	7
  2987  01CE  303A               	movlw	low Display_value@myBuffer
  2988  01CF  0084               	movwf	4
  2989  01D0  3000               	movlw	high Display_value@myBuffer
  2990  01D1  0085               	movwf	5
  2991  01D2  3006               	movlw	6
  2992  01D3  00B8               	movwf	??_Display_value
  2993  01D4                     u1000:	
  2994  01D4  0016               	moviw fsr1++
  2995  01D5  001A               	movwi fsr0++
  2996  01D6  0BB8               	decfsz	??_Display_value,f
  2997  01D7  29D4               	goto	u1000
  2998                           
  2999                           ;drv_74hc595.c: 16: char numChar[6]={'\0'};
  3000  01D8  3051               	movlw	low Display_value@F3238
  3001  01D9  0086               	movwf	6
  3002  01DA  3000               	movlw	high Display_value@F3238
  3003  01DB  0087               	movwf	7
  3004  01DC  3040               	movlw	low Display_value@numChar
  3005  01DD  0084               	movwf	4
  3006  01DE  3000               	movlw	high Display_value@numChar
  3007  01DF  0085               	movwf	5
  3008  01E0  3006               	movlw	6
  3009  01E1  00B8               	movwf	??_Display_value
  3010  01E2                     u1010:	
  3011  01E2  0016               	moviw fsr1++
  3012  01E3  001A               	movwi fsr0++
  3013  01E4  0BB8               	decfsz	??_Display_value,f
  3014  01E5  29E2               	goto	u1010
  3015                           
  3016                           ;drv_74hc595.c: 17: itoa(myBuffer, number, 10);
  3017  01E6  0847               	movf	Display_value@number+1,w
  3018  01E7  00B0               	movwf	itoa@val+1
  3019  01E8  0846               	movf	Display_value@number,w
  3020  01E9  00AF               	movwf	itoa@val
  3021  01EA  300A               	movlw	10
  3022  01EB  00B1               	movwf	itoa@base
  3023  01EC  3000               	movlw	0
  3024  01ED  00B2               	movwf	itoa@base+1
  3025  01EE  303A               	movlw	(low (Display_value@myBuffer| 0))& (0+255)
  3026  01EF  2427               	fcall	_itoa
  3027                           
  3028                           ;drv_74hc595.c: 18: GetStringReverse(myBuffer, numChar);
  3029  01F0  3040               	movlw	(low (Display_value@numChar| 0))& (0+255)
  3030  01F1  0020               	movlb	0	; select bank0
  3031  01F2  00B8               	movwf	??_Display_value
  3032  01F3  0838               	movf	??_Display_value,w
  3033  01F4  00F2               	movwf	GetStringReverse@buff
  3034  01F5  303A               	movlw	(low (Display_value@myBuffer| 0))& (0+255)
  3035  01F6  2329               	fcall	_GetStringReverse
  3036                           
  3037                           ;drv_74hc595.c: 19: Display_put('0');
  3038  01F7  3030               	movlw	48
  3039  01F8  00F2               	movwf	Display_put@dig
  3040  01F9  3000               	movlw	0
  3041  01FA  00F3               	movwf	Display_put@dig+1
  3042  01FB  239C               	fcall	_Display_put
  3043                           
  3044                           ;drv_74hc595.c: 20: dot=1;
  3045  01FC  0020               	movlb	0	; select bank0
  3046  01FD  01DD               	clrf	_dot
  3047  01FE  0ADD               	incf	_dot,f
  3048                           
  3049                           ;drv_74hc595.c: 21: for(i=0; i<5; i++)
  3050  01FF  01C8               	clrf	Display_value@i
  3051  0200  3005               	movlw	5
  3052  0201  0248               	subwf	Display_value@i,w
  3053  0202  1803               	btfsc	3,0
  3054  0203  2A24               	goto	l27
  3055  0204                     l1492:	
  3056                           
  3057                           ;drv_74hc595.c: 22: {
  3058                           ;drv_74hc595.c: 23: if(numChar[i]!= '\0')
  3059  0204  0848               	movf	Display_value@i,w
  3060  0205  3E40               	addlw	(low (Display_value@numChar| 0))& (0+255)
  3061  0206  0086               	movwf	6
  3062  0207  0187               	clrf	7
  3063  0208  0801               	movf	1,w
  3064  0209  1903               	btfsc	3,2
  3065  020A  2A16               	goto	l1496
  3066                           
  3067                           ;drv_74hc595.c: 24: {
  3068                           ;drv_74hc595.c: 25: Display_put(numChar[i]);
  3069  020B  0848               	movf	Display_value@i,w
  3070  020C  3E40               	addlw	(low (Display_value@numChar| 0))& (0+255)
  3071  020D  0086               	movwf	6
  3072  020E  0187               	clrf	7
  3073  020F  0801               	movf	1,w
  3074  0210  00B8               	movwf	??_Display_value
  3075  0211  01B9               	clrf	??_Display_value+1
  3076  0212  0838               	movf	??_Display_value,w
  3077  0213  00F2               	movwf	Display_put@dig
  3078  0214  0839               	movf	??_Display_value+1,w
  3079  0215  2A19               	goto	L2
  3080  0216                     l1496:	
  3081                           ;drv_74hc595.c: 26: }
  3082                           
  3083                           
  3084                           ;drv_74hc595.c: 27: else
  3085                           ;drv_74hc595.c: 28: {
  3086                           ;drv_74hc595.c: 29: Display_put((0));
  3087  0216  3000               	movlw	0
  3088  0217  00F2               	movwf	Display_put@dig
  3089  0218  3000               	movlw	0
  3090  0219                     L2:	
  3091  0219  00F3               	movwf	Display_put@dig+1
  3092  021A  239C               	fcall	_Display_put
  3093  021B  3001               	movlw	1
  3094  021C  0020               	movlb	0	; select bank0
  3095  021D  00B8               	movwf	??_Display_value
  3096  021E  0838               	movf	??_Display_value,w
  3097  021F  07C8               	addwf	Display_value@i,f
  3098  0220  3005               	movlw	5
  3099  0221  0248               	subwf	Display_value@i,w
  3100  0222  1C03               	skipc
  3101  0223  2A04               	goto	l1492
  3102  0224                     l27:	
  3103                           ;drv_74hc595.c: 30: }
  3104                           ;drv_74hc595.c: 31: }
  3105                           ;drv_74hc595.c: 32: do { LATC4 = 1; } while(0);
  3106                           
  3107  0224  0022               	movlb	2	; select bank2
  3108  0225  160E               	bsf	14,4	;volatile
  3109                           
  3110                           ;drv_74hc595.c: 33: do { LATC4 = 0; } while(0);
  3111  0226  120E               	bcf	14,4	;volatile
  3112  0227  0008               	return
  3113  0228                     __end_of_Display_value:	
  3114                           
  3115                           	psect	text7
  3116  0427                     __ptext7:	
  3117 ;; *************** function _itoa *****************
  3118 ;; Defined at:
  3119 ;;		line 4 in file "C:\Program Files (x86)\Microchip\xc8\v1.35\sources\common\itoa.c"
  3120 ;; Parameters:    Size  Location     Type
  3121 ;;  buf             1    wreg     PTR unsigned char 
  3122 ;;		 -> Display_value@myBuffer(6), 
  3123 ;;  val             2   15[BANK0 ] int 
  3124 ;;  base            2   17[BANK0 ] int 
  3125 ;; Auto vars:     Size  Location     Type
  3126 ;;  buf             1   21[BANK0 ] PTR unsigned char 
  3127 ;;		 -> Display_value@myBuffer(6), 
  3128 ;;  cp              1   20[BANK0 ] PTR unsigned char 
  3129 ;;		 -> Display_value@myBuffer(6), 
  3130 ;; Return value:  Size  Location     Type
  3131 ;;                  1    wreg      PTR unsigned char 
  3132 ;; Registers used:
  3133 ;;		wreg, fsr1l, fsr1h, status,2, status,0, pclath, cstack
  3134 ;; Tracked objects:
  3135 ;;		On entry : 0/0
  3136 ;;		On exit  : 0/0
  3137 ;;		Unchanged: 0/0
  3138 ;; Data sizes:     COMMON   BANK0   BANK1
  3139 ;;      Params:         0       4       0
  3140 ;;      Locals:         0       2       0
  3141 ;;      Temps:          0       1       0
  3142 ;;      Totals:         0       7       0
  3143 ;;Total ram usage:        7 bytes
  3144 ;; Hardware stack levels used:    1
  3145 ;; Hardware stack levels required when called:    5
  3146 ;; This function calls:
  3147 ;;		_utoa
  3148 ;; This function is called by:
  3149 ;;		_Display_value
  3150 ;; This function uses a non-reentrant model
  3151 ;;
  3152                           
  3153                           
  3154                           ;psect for function _itoa
  3155  0427                     _itoa:	
  3156                           
  3157                           ;incstack = 0
  3158                           ; Regs used in _itoa: [wreg+fsr1l+fsr1h+status,2+status,0+pclath+cstack]
  3159                           ;itoa@buf stored from wreg
  3160  0427  0020               	movlb	0	; select bank0
  3161  0428  00B5               	movwf	itoa@buf
  3162  0429  0835               	movf	itoa@buf,w
  3163  042A  00B3               	movwf	??_itoa
  3164  042B  0833               	movf	??_itoa,w
  3165  042C  00B4               	movwf	itoa@cp
  3166  042D  1FB0               	btfss	itoa@val+1,7
  3167  042E  2C3F               	goto	l1454
  3168  042F  302D               	movlw	45
  3169  0430  00B3               	movwf	??_itoa
  3170  0431  0835               	movf	itoa@buf,w
  3171  0432  0086               	movwf	6
  3172  0433  0187               	clrf	7
  3173  0434  0833               	movf	??_itoa,w
  3174  0435  0081               	movwf	1
  3175  0436  3001               	movlw	1
  3176  0437  00B3               	movwf	??_itoa
  3177  0438  0833               	movf	??_itoa,w
  3178  0439  07B5               	addwf	itoa@buf,f
  3179  043A  09AF               	comf	itoa@val,f
  3180  043B  09B0               	comf	itoa@val+1,f
  3181  043C  0AAF               	incf	itoa@val,f
  3182  043D  1903               	skipnz
  3183  043E  0AB0               	incf	itoa@val+1,f
  3184  043F                     l1454:	
  3185  043F  0830               	movf	itoa@val+1,w
  3186  0440  00A8               	movwf	utoa@val+1
  3187  0441  082F               	movf	itoa@val,w
  3188  0442  00A7               	movwf	utoa@val
  3189  0443  0832               	movf	itoa@base+1,w
  3190  0444  00AA               	movwf	utoa@base+1
  3191  0445  0831               	movf	itoa@base,w
  3192  0446  00A9               	movwf	utoa@base
  3193  0447  0835               	movf	itoa@buf,w
  3194  0448  2228               	fcall	_utoa
  3195  0449  0008               	return
  3196  044A                     __end_of_itoa:	
  3197                           ;	Return value of _itoa is never used
  3198                           
  3199                           
  3200                           	psect	text8
  3201  0228                     __ptext8:	
  3202 ;; *************** function _utoa *****************
  3203 ;; Defined at:
  3204 ;;		line 17 in file "C:\Program Files (x86)\Microchip\xc8\v1.35\sources\common\itoa.c"
  3205 ;; Parameters:    Size  Location     Type
  3206 ;;  buf             1    wreg     PTR unsigned char 
  3207 ;;		 -> Display_value@myBuffer(6), 
  3208 ;;  val             2    7[BANK0 ] unsigned int 
  3209 ;;  base            2    9[BANK0 ] int 
  3210 ;; Auto vars:     Size  Location     Type
  3211 ;;  buf             1   14[BANK0 ] PTR unsigned char 
  3212 ;;		 -> Display_value@myBuffer(6), 
  3213 ;;  v               2   11[BANK0 ] unsigned int 
  3214 ;;  c               1   13[BANK0 ] unsigned char 
  3215 ;; Return value:  Size  Location     Type
  3216 ;;                  1    wreg      PTR unsigned char 
  3217 ;; Registers used:
  3218 ;;		wreg, fsr1l, fsr1h, status,2, status,0, pclath, cstack
  3219 ;; Tracked objects:
  3220 ;;		On entry : 0/0
  3221 ;;		On exit  : 0/0
  3222 ;;		Unchanged: 0/0
  3223 ;; Data sizes:     COMMON   BANK0   BANK1
  3224 ;;      Params:         0       4       0
  3225 ;;      Locals:         0       4       0
  3226 ;;      Temps:          1       0       0
  3227 ;;      Totals:         1       8       0
  3228 ;;Total ram usage:        9 bytes
  3229 ;; Hardware stack levels used:    1
  3230 ;; Hardware stack levels required when called:    4
  3231 ;; This function calls:
  3232 ;;		___lwdiv
  3233 ;;		___lwmod
  3234 ;; This function is called by:
  3235 ;;		_itoa
  3236 ;; This function uses a non-reentrant model
  3237 ;;
  3238                           
  3239                           
  3240                           ;psect for function _utoa
  3241  0228                     _utoa:	
  3242                           
  3243                           ;incstack = 0
  3244                           ; Regs used in _utoa: [wreg+fsr1l+fsr1h+status,2+status,0+pclath+cstack]
  3245                           ;utoa@buf stored from wreg
  3246  0228  0020               	movlb	0	; select bank0
  3247  0229  00AE               	movwf	utoa@buf
  3248  022A  0828               	movf	utoa@val+1,w
  3249  022B  00AC               	movwf	utoa@v+1
  3250  022C  0827               	movf	utoa@val,w
  3251  022D  00AB               	movwf	utoa@v
  3252  022E                     l1416:	
  3253  022E  082A               	movf	utoa@base+1,w
  3254  022F  00A1               	movwf	___lwdiv@divisor+1
  3255  0230  0829               	movf	utoa@base,w
  3256  0231  00A0               	movwf	___lwdiv@divisor
  3257  0232  082C               	movf	utoa@v+1,w
  3258  0233  00A3               	movwf	___lwdiv@dividend+1
  3259  0234  082B               	movf	utoa@v,w
  3260  0235  00A2               	movwf	___lwdiv@dividend
  3261  0236  2367               	fcall	___lwdiv
  3262  0237  0020               	movlb	0	; select bank0
  3263  0238  0821               	movf	?___lwdiv+1,w
  3264  0239  00AC               	movwf	utoa@v+1
  3265  023A  0820               	movf	?___lwdiv,w
  3266  023B  00AB               	movwf	utoa@v
  3267  023C  3001               	movlw	1
  3268  023D  00F9               	movwf	??_utoa
  3269  023E  0879               	movf	??_utoa,w
  3270  023F  07AE               	addwf	utoa@buf,f
  3271  0240  082B               	movf	utoa@v,w
  3272  0241  042C               	iorwf	utoa@v+1,w
  3273  0242  1D03               	btfss	3,2
  3274  0243  2A2E               	goto	l1416
  3275  0244  082E               	movf	utoa@buf,w
  3276  0245  0086               	movwf	6
  3277  0246  0187               	clrf	7
  3278  0247  0181               	clrf	1
  3279  0248  3001               	movlw	1
  3280  0249  02AE               	subwf	utoa@buf,f
  3281  024A                     l1426:	
  3282  024A  082A               	movf	utoa@base+1,w
  3283  024B  00F3               	movwf	___lwmod@divisor+1
  3284  024C  0829               	movf	utoa@base,w
  3285  024D  00F2               	movwf	___lwmod@divisor
  3286  024E  0828               	movf	utoa@val+1,w
  3287  024F  00F5               	movwf	___lwmod@dividend+1
  3288  0250  0827               	movf	utoa@val,w
  3289  0251  00F4               	movwf	___lwmod@dividend
  3290  0252  23D1               	fcall	___lwmod
  3291  0253  0872               	movf	?___lwmod,w
  3292  0254  00F9               	movwf	??_utoa
  3293  0255  0879               	movf	??_utoa,w
  3294  0256  0020               	movlb	0	; select bank0
  3295  0257  00AD               	movwf	utoa@c
  3296  0258  082A               	movf	utoa@base+1,w
  3297  0259  00A1               	movwf	___lwdiv@divisor+1
  3298  025A  0829               	movf	utoa@base,w
  3299  025B  00A0               	movwf	___lwdiv@divisor
  3300  025C  0828               	movf	utoa@val+1,w
  3301  025D  00A3               	movwf	___lwdiv@dividend+1
  3302  025E  0827               	movf	utoa@val,w
  3303  025F  00A2               	movwf	___lwdiv@dividend
  3304  0260  2367               	fcall	___lwdiv
  3305  0261  0020               	movlb	0	; select bank0
  3306  0262  0821               	movf	?___lwdiv+1,w
  3307  0263  00A8               	movwf	utoa@val+1
  3308  0264  0820               	movf	?___lwdiv,w
  3309  0265  00A7               	movwf	utoa@val
  3310  0266  300A               	movlw	10
  3311  0267  022D               	subwf	utoa@c,w
  3312  0268  1C03               	skipc
  3313  0269  2A6E               	goto	l551
  3314  026A  3007               	movlw	7
  3315  026B  00F9               	movwf	??_utoa
  3316  026C  0879               	movf	??_utoa,w
  3317  026D  07AD               	addwf	utoa@c,f
  3318  026E                     l551:	
  3319  026E  3030               	movlw	48
  3320  026F  00F9               	movwf	??_utoa
  3321  0270  0879               	movf	??_utoa,w
  3322  0271  07AD               	addwf	utoa@c,f
  3323  0272  082D               	movf	utoa@c,w
  3324  0273  00F9               	movwf	??_utoa
  3325  0274  082E               	movf	utoa@buf,w
  3326  0275  0086               	movwf	6
  3327  0276  0187               	clrf	7
  3328  0277  0879               	movf	??_utoa,w
  3329  0278  0081               	movwf	1
  3330  0279  3001               	movlw	1
  3331  027A  02AE               	subwf	utoa@buf,f
  3332  027B  0827               	movf	utoa@val,w
  3333  027C  0428               	iorwf	utoa@val+1,w
  3334  027D  1D03               	btfss	3,2
  3335  027E  2A4A               	goto	l1426
  3336                           
  3337                           ;	Return value of _utoa is never used
  3338  027F  3001               	movlw	1
  3339  0280  00F9               	movwf	??_utoa
  3340  0281  0879               	movf	??_utoa,w
  3341  0282  07AE               	addwf	utoa@buf,f
  3342  0283  0008               	return
  3343  0284                     __end_of_utoa:	
  3344                           
  3345                           	psect	text9
  3346  03D1                     __ptext9:	
  3347 ;; *************** function ___lwmod *****************
  3348 ;; Defined at:
  3349 ;;		line 6 in file "C:\Program Files (x86)\Microchip\xc8\v1.35\sources\common\lwmod.c"
  3350 ;; Parameters:    Size  Location     Type
  3351 ;;  divisor         2    2[COMMON] unsigned int 
  3352 ;;  dividend        2    4[COMMON] unsigned int 
  3353 ;; Auto vars:     Size  Location     Type
  3354 ;;  counter         1    7[COMMON] unsigned char 
  3355 ;; Return value:  Size  Location     Type
  3356 ;;                  2    2[COMMON] unsigned int 
  3357 ;; Registers used:
  3358 ;;		wreg, status,2, status,0
  3359 ;; Tracked objects:
  3360 ;;		On entry : 0/0
  3361 ;;		On exit  : 0/0
  3362 ;;		Unchanged: 0/0
  3363 ;; Data sizes:     COMMON   BANK0   BANK1
  3364 ;;      Params:         4       0       0
  3365 ;;      Locals:         1       0       0
  3366 ;;      Temps:          1       0       0
  3367 ;;      Totals:         6       0       0
  3368 ;;Total ram usage:        6 bytes
  3369 ;; Hardware stack levels used:    1
  3370 ;; Hardware stack levels required when called:    3
  3371 ;; This function calls:
  3372 ;;		Nothing
  3373 ;; This function is called by:
  3374 ;;		_utoa
  3375 ;; This function uses a non-reentrant model
  3376 ;;
  3377                           
  3378                           
  3379                           ;psect for function ___lwmod
  3380  03D1                     ___lwmod:	
  3381                           
  3382                           ;incstack = 0
  3383                           ; Regs used in ___lwmod: [wreg+status,2+status,0]
  3384  03D1  0872               	movf	___lwmod@divisor,w
  3385  03D2  0473               	iorwf	___lwmod@divisor+1,w
  3386  03D3  1903               	btfsc	3,2
  3387  03D4  2BF8               	goto	l1126
  3388  03D5  01F7               	clrf	___lwmod@counter
  3389  03D6  0AF7               	incf	___lwmod@counter,f
  3390  03D7                     l1116:	
  3391  03D7  1BF3               	btfsc	___lwmod@divisor+1,7
  3392  03D8  2BE3               	goto	l1118
  3393  03D9  3001               	movlw	1
  3394  03DA                     u535:	
  3395  03DA  35F2               	lslf	___lwmod@divisor,f
  3396  03DB  0DF3               	rlf	___lwmod@divisor+1,f
  3397  03DC  0B89               	decfsz	9,f
  3398  03DD  2BDA               	goto	u535
  3399  03DE  3001               	movlw	1
  3400  03DF  00F6               	movwf	??___lwmod
  3401  03E0  0876               	movf	??___lwmod,w
  3402  03E1  07F7               	addwf	___lwmod@counter,f
  3403  03E2  2BD7               	goto	l1116
  3404  03E3                     l1118:	
  3405  03E3  0873               	movf	___lwmod@divisor+1,w
  3406  03E4  0275               	subwf	___lwmod@dividend+1,w
  3407  03E5  1D03               	skipz
  3408  03E6  2BE9               	goto	u555
  3409  03E7  0872               	movf	___lwmod@divisor,w
  3410  03E8  0274               	subwf	___lwmod@dividend,w
  3411  03E9                     u555:	
  3412  03E9  1C03               	skipc
  3413  03EA  2BEF               	goto	l1122
  3414  03EB  0872               	movf	___lwmod@divisor,w
  3415  03EC  02F4               	subwf	___lwmod@dividend,f
  3416  03ED  0873               	movf	___lwmod@divisor+1,w
  3417  03EE  3BF5               	subwfb	___lwmod@dividend+1,f
  3418  03EF                     l1122:	
  3419  03EF  3001               	movlw	1
  3420  03F0                     u565:	
  3421  03F0  36F3               	lsrf	___lwmod@divisor+1,f
  3422  03F1  0CF2               	rrf	___lwmod@divisor,f
  3423  03F2  0B89               	decfsz	9,f
  3424  03F3  2BF0               	goto	u565
  3425  03F4  3001               	movlw	1
  3426  03F5  02F7               	subwf	___lwmod@counter,f
  3427  03F6  1D03               	btfss	3,2
  3428  03F7  2BE3               	goto	l1118
  3429  03F8                     l1126:	
  3430  03F8  0875               	movf	___lwmod@dividend+1,w
  3431  03F9  00F3               	movwf	?___lwmod+1
  3432  03FA  0874               	movf	___lwmod@dividend,w
  3433  03FB  00F2               	movwf	?___lwmod
  3434  03FC  0008               	return
  3435  03FD                     __end_of___lwmod:	
  3436                           
  3437                           	psect	text10
  3438  0367                     __ptext10:	
  3439 ;; *************** function ___lwdiv *****************
  3440 ;; Defined at:
  3441 ;;		line 6 in file "C:\Program Files (x86)\Microchip\xc8\v1.35\sources\common\lwdiv.c"
  3442 ;; Parameters:    Size  Location     Type
  3443 ;;  divisor         2    0[BANK0 ] unsigned int 
  3444 ;;  dividend        2    2[BANK0 ] unsigned int 
  3445 ;; Auto vars:     Size  Location     Type
  3446 ;;  quotient        2    5[BANK0 ] unsigned int 
  3447 ;;  counter         1    4[BANK0 ] unsigned char 
  3448 ;; Return value:  Size  Location     Type
  3449 ;;                  2    0[BANK0 ] unsigned int 
  3450 ;; Registers used:
  3451 ;;		wreg, status,2, status,0
  3452 ;; Tracked objects:
  3453 ;;		On entry : 0/0
  3454 ;;		On exit  : 0/0
  3455 ;;		Unchanged: 0/0
  3456 ;; Data sizes:     COMMON   BANK0   BANK1
  3457 ;;      Params:         0       4       0
  3458 ;;      Locals:         0       3       0
  3459 ;;      Temps:          1       0       0
  3460 ;;      Totals:         1       7       0
  3461 ;;Total ram usage:        8 bytes
  3462 ;; Hardware stack levels used:    1
  3463 ;; Hardware stack levels required when called:    3
  3464 ;; This function calls:
  3465 ;;		Nothing
  3466 ;; This function is called by:
  3467 ;;		_ReadWaterLevel
  3468 ;;		_WaterLevel_Lookup
  3469 ;;		_utoa
  3470 ;; This function uses a non-reentrant model
  3471 ;;
  3472                           
  3473                           
  3474                           ;psect for function ___lwdiv
  3475  0367                     ___lwdiv:	
  3476                           
  3477                           ;incstack = 0
  3478                           ; Regs used in ___lwdiv: [wreg+status,2+status,0]
  3479  0367  0020               	movlb	0	; select bank0
  3480  0368  01A5               	clrf	___lwdiv@quotient
  3481  0369  01A6               	clrf	___lwdiv@quotient+1
  3482  036A  0820               	movf	___lwdiv@divisor,w
  3483  036B  0421               	iorwf	___lwdiv@divisor+1,w
  3484  036C  1903               	btfsc	3,2
  3485  036D  2B97               	goto	l1410
  3486  036E  01A4               	clrf	___lwdiv@counter
  3487  036F  0AA4               	incf	___lwdiv@counter,f
  3488  0370                     l1398:	
  3489  0370  1BA1               	btfsc	___lwdiv@divisor+1,7
  3490  0371  2B7C               	goto	l1400
  3491  0372  3001               	movlw	1
  3492  0373                     u895:	
  3493  0373  35A0               	lslf	___lwdiv@divisor,f
  3494  0374  0DA1               	rlf	___lwdiv@divisor+1,f
  3495  0375  0B89               	decfsz	9,f
  3496  0376  2B73               	goto	u895
  3497  0377  3001               	movlw	1
  3498  0378  00F8               	movwf	??___lwdiv
  3499  0379  0878               	movf	??___lwdiv,w
  3500  037A  07A4               	addwf	___lwdiv@counter,f
  3501  037B  2B70               	goto	l1398
  3502  037C                     l1400:	
  3503  037C  3001               	movlw	1
  3504  037D                     u915:	
  3505  037D  35A5               	lslf	___lwdiv@quotient,f
  3506  037E  0DA6               	rlf	___lwdiv@quotient+1,f
  3507  037F  0B89               	decfsz	9,f
  3508  0380  2B7D               	goto	u915
  3509  0381  0821               	movf	___lwdiv@divisor+1,w
  3510  0382  0223               	subwf	___lwdiv@dividend+1,w
  3511  0383  1D03               	skipz
  3512  0384  2B87               	goto	u925
  3513  0385  0820               	movf	___lwdiv@divisor,w
  3514  0386  0222               	subwf	___lwdiv@dividend,w
  3515  0387                     u925:	
  3516  0387  1C03               	skipc
  3517  0388  2B8E               	goto	l1406
  3518  0389  0820               	movf	___lwdiv@divisor,w
  3519  038A  02A2               	subwf	___lwdiv@dividend,f
  3520  038B  0821               	movf	___lwdiv@divisor+1,w
  3521  038C  3BA3               	subwfb	___lwdiv@dividend+1,f
  3522  038D  1425               	bsf	___lwdiv@quotient,0
  3523  038E                     l1406:	
  3524  038E  3001               	movlw	1
  3525  038F                     u935:	
  3526  038F  36A1               	lsrf	___lwdiv@divisor+1,f
  3527  0390  0CA0               	rrf	___lwdiv@divisor,f
  3528  0391  0B89               	decfsz	9,f
  3529  0392  2B8F               	goto	u935
  3530  0393  3001               	movlw	1
  3531  0394  02A4               	subwf	___lwdiv@counter,f
  3532  0395  1D03               	btfss	3,2
  3533  0396  2B7C               	goto	l1400
  3534  0397                     l1410:	
  3535  0397  0826               	movf	___lwdiv@quotient+1,w
  3536  0398  00A1               	movwf	?___lwdiv+1
  3537  0399  0825               	movf	___lwdiv@quotient,w
  3538  039A  00A0               	movwf	?___lwdiv
  3539  039B  0008               	return
  3540  039C                     __end_of___lwdiv:	
  3541                           
  3542                           	psect	text11
  3543  0329                     __ptext11:	
  3544 ;; *************** function _GetStringReverse *****************
  3545 ;; Defined at:
  3546 ;;		line 59 in file "drv_74hc595/drv_74hc595.c"
  3547 ;; Parameters:    Size  Location     Type
  3548 ;;  str             1    wreg     PTR unsigned char 
  3549 ;;		 -> Display_value@myBuffer(6), 
  3550 ;;  buff            1    2[COMMON] PTR unsigned char 
  3551 ;;		 -> Display_value@numChar(6), 
  3552 ;; Auto vars:     Size  Location     Type
  3553 ;;  str             1    4[COMMON] PTR unsigned char 
  3554 ;;		 -> Display_value@myBuffer(6), 
  3555 ;;  i               2    5[COMMON] int 
  3556 ;;  sptr            1    8[COMMON] PTR unsigned char 
  3557 ;;		 -> Display_value@myBuffer(6), 
  3558 ;;  rptr            1    7[COMMON] PTR unsigned char 
  3559 ;;		 -> Display_value@numChar(6), 
  3560 ;; Return value:  Size  Location     Type
  3561 ;;		None               void
  3562 ;; Registers used:
  3563 ;;		wreg, fsr1l, fsr1h, status,2, status,0
  3564 ;; Tracked objects:
  3565 ;;		On entry : 0/0
  3566 ;;		On exit  : 0/0
  3567 ;;		Unchanged: 0/0
  3568 ;; Data sizes:     COMMON   BANK0   BANK1
  3569 ;;      Params:         1       0       0
  3570 ;;      Locals:         5       0       0
  3571 ;;      Temps:          1       0       0
  3572 ;;      Totals:         7       0       0
  3573 ;;Total ram usage:        7 bytes
  3574 ;; Hardware stack levels used:    1
  3575 ;; Hardware stack levels required when called:    3
  3576 ;; This function calls:
  3577 ;;		Nothing
  3578 ;; This function is called by:
  3579 ;;		_Display_value
  3580 ;; This function uses a non-reentrant model
  3581 ;;
  3582                           
  3583                           
  3584                           ;psect for function _GetStringReverse
  3585  0329                     _GetStringReverse:	
  3586                           
  3587                           ;incstack = 0
  3588                           ; Regs used in _GetStringReverse: [wreg+fsr1l+fsr1h+status,2+status,0]
  3589                           ;GetStringReverse@str stored from wreg
  3590  0329  00F4               	movwf	GetStringReverse@str
  3591                           
  3592                           ;drv_74hc595.c: 62: int i=0;
  3593  032A  01F5               	clrf	GetStringReverse@i
  3594  032B  01F6               	clrf	GetStringReverse@i+1
  3595                           
  3596                           ;drv_74hc595.c: 63: char *sptr;
  3597                           ;drv_74hc595.c: 64: char *rptr;
  3598                           ;drv_74hc595.c: 65: rptr=buff;
  3599  032C  0872               	movf	GetStringReverse@buff,w
  3600  032D  00F3               	movwf	??_GetStringReverse
  3601  032E  0873               	movf	??_GetStringReverse,w
  3602  032F  00F7               	movwf	GetStringReverse@rptr
  3603                           
  3604                           ;drv_74hc595.c: 66: sptr=str;
  3605  0330  0874               	movf	GetStringReverse@str,w
  3606  0331  00F3               	movwf	??_GetStringReverse
  3607  0332  0873               	movf	??_GetStringReverse,w
  3608  0333  00F8               	movwf	GetStringReverse@sptr
  3609  0334                     l1210:	
  3610                           ;drv_74hc595.c: 67: while(*sptr)
  3611                           
  3612  0334  0878               	movf	GetStringReverse@sptr,w
  3613  0335  0086               	movwf	6
  3614  0336  0187               	clrf	7
  3615  0337  0801               	movf	1,w
  3616  0338  1903               	btfsc	3,2
  3617  0339  2B57               	goto	l1220
  3618                           
  3619                           ;drv_74hc595.c: 68: {
  3620                           ;drv_74hc595.c: 69: sptr++;
  3621  033A  3001               	movlw	1
  3622  033B  00F3               	movwf	??_GetStringReverse
  3623  033C  0873               	movf	??_GetStringReverse,w
  3624  033D  07F8               	addwf	GetStringReverse@sptr,f
  3625                           
  3626                           ;drv_74hc595.c: 70: i++;
  3627  033E  3001               	movlw	1
  3628  033F  07F5               	addwf	GetStringReverse@i,f
  3629  0340  3000               	movlw	0
  3630  0341  3DF6               	addwfc	GetStringReverse@i+1,f
  3631  0342  2B34               	goto	l1210
  3632  0343                     l1212:	
  3633                           ;drv_74hc595.c: 71: }
  3634                           ;drv_74hc595.c: 72: while(i>0)
  3635                           
  3636                           
  3637                           ;drv_74hc595.c: 73: {
  3638                           ;drv_74hc595.c: 74: sptr--;
  3639  0343  3001               	movlw	1
  3640  0344  02F8               	subwf	GetStringReverse@sptr,f
  3641                           
  3642                           ;drv_74hc595.c: 75: *rptr=*sptr;
  3643  0345  0878               	movf	GetStringReverse@sptr,w
  3644  0346  0086               	movwf	6
  3645  0347  0187               	clrf	7
  3646  0348  0801               	movf	1,w
  3647  0349  00F3               	movwf	??_GetStringReverse
  3648  034A  0877               	movf	GetStringReverse@rptr,w
  3649  034B  0086               	movwf	6
  3650  034C  0187               	clrf	7
  3651  034D  0873               	movf	??_GetStringReverse,w
  3652  034E  0081               	movwf	1
  3653                           
  3654                           ;drv_74hc595.c: 76: rptr++;
  3655  034F  3001               	movlw	1
  3656  0350  00F3               	movwf	??_GetStringReverse
  3657  0351  0873               	movf	??_GetStringReverse,w
  3658  0352  07F7               	addwf	GetStringReverse@rptr,f
  3659                           
  3660                           ;drv_74hc595.c: 77: --i;
  3661  0353  30FF               	movlw	255
  3662  0354  07F5               	addwf	GetStringReverse@i,f
  3663  0355  30FF               	movlw	255
  3664  0356  3DF6               	addwfc	GetStringReverse@i+1,f
  3665  0357                     l1220:	
  3666  0357  0876               	movf	GetStringReverse@i+1,w
  3667  0358  3A80               	xorlw	128
  3668  0359  00F3               	movwf	??_GetStringReverse
  3669  035A  3080               	movlw	128
  3670  035B  0273               	subwf	??_GetStringReverse,w
  3671  035C  1D03               	skipz
  3672  035D  2B60               	goto	u685
  3673  035E  3001               	movlw	1
  3674  035F  0275               	subwf	GetStringReverse@i,w
  3675  0360                     u685:	
  3676  0360  1803               	skipnc
  3677  0361  2B43               	goto	l1212
  3678                           
  3679                           ;drv_74hc595.c: 78: }
  3680                           ;drv_74hc595.c: 79: *rptr='\0';
  3681  0362  0877               	movf	GetStringReverse@rptr,w
  3682  0363  0086               	movwf	6
  3683  0364  0187               	clrf	7
  3684  0365  0181               	clrf	1
  3685  0366  0008               	return
  3686  0367                     __end_of_GetStringReverse:	
  3687                           
  3688                           	psect	text12
  3689  039C                     __ptext12:	
  3690 ;; *************** function _Display_put *****************
  3691 ;; Defined at:
  3692 ;;		line 35 in file "drv_74hc595/drv_74hc595.c"
  3693 ;; Parameters:    Size  Location     Type
  3694 ;;  dig             2    2[COMMON] PTR unsigned char 
  3695 ;;		 -> NULL(0), RAM(4096), RAM(4096), 
  3696 ;; Auto vars:     Size  Location     Type
  3697 ;;  i               1    7[COMMON] unsigned char 
  3698 ;;  digit           1    6[COMMON] unsigned char 
  3699 ;; Return value:  Size  Location     Type
  3700 ;;		None               void
  3701 ;; Registers used:
  3702 ;;		wreg, fsr0l, fsr0h, status,2, status,0, pclath
  3703 ;; Tracked objects:
  3704 ;;		On entry : 0/0
  3705 ;;		On exit  : 0/0
  3706 ;;		Unchanged: 0/0
  3707 ;; Data sizes:     COMMON   BANK0   BANK1
  3708 ;;      Params:         2       0       0
  3709 ;;      Locals:         2       0       0
  3710 ;;      Temps:          2       0       0
  3711 ;;      Totals:         6       0       0
  3712 ;;Total ram usage:        6 bytes
  3713 ;; Hardware stack levels used:    1
  3714 ;; Hardware stack levels required when called:    3
  3715 ;; This function calls:
  3716 ;;		Nothing
  3717 ;; This function is called by:
  3718 ;;		_Display_value
  3719 ;; This function uses a non-reentrant model
  3720 ;;
  3721                           
  3722                           
  3723                           ;psect for function _Display_put
  3724  039C                     _Display_put:	
  3725                           
  3726                           ;drv_74hc595.c: 37: char digit = (char)dig;
  3727                           
  3728                           ;incstack = 0
  3729                           ; Regs used in _Display_put: [wreg-fsr0h+status,2+status,0+pclath]
  3730  039C  0872               	movf	Display_put@dig,w
  3731  039D  00F4               	movwf	??_Display_put
  3732  039E  0874               	movf	??_Display_put,w
  3733  039F  00F6               	movwf	Display_put@digit
  3734                           
  3735                           ;drv_74hc595.c: 38: if(digit == (0))
  3736  03A0  0876               	movf	Display_put@digit,w
  3737  03A1  1D03               	btfss	3,2
  3738  03A2  2BA5               	goto	l1230
  3739                           
  3740                           ;drv_74hc595.c: 39: {
  3741                           ;drv_74hc595.c: 40: digit = 0;
  3742  03A3  01F6               	clrf	Display_put@digit
  3743                           
  3744                           ;drv_74hc595.c: 41: }
  3745  03A4  2BA7               	goto	l1232
  3746  03A5                     l1230:	
  3747                           
  3748                           ;drv_74hc595.c: 42: else
  3749                           ;drv_74hc595.c: 43: {
  3750                           ;drv_74hc595.c: 44: digit -= 47;
  3751  03A5  302F               	movlw	47
  3752  03A6  02F6               	subwf	Display_put@digit,f
  3753  03A7                     l1232:	
  3754                           
  3755                           ;drv_74hc595.c: 45: }
  3756                           ;drv_74hc595.c: 47: const uint8_t const display_segment[]={0b00000000,0b01101111,0b00001
      +                          010,0b01110110,0b01011110,0b00011011,0b01011101,0b01111101,0b00001110,0b01111111,0b01011
      +                          111};
  3757                           ;drv_74hc595.c: 48: uint8_t i=0;
  3758  03A7  01F7               	clrf	Display_put@i
  3759                           
  3760                           ;drv_74hc595.c: 49: do { LATC5 = 0; } while(0);
  3761  03A8  0022               	movlb	2	; select bank2
  3762  03A9  128E               	bcf	14,5	;volatile
  3763                           
  3764                           ;drv_74hc595.c: 50: do { LATC4 = 0; } while(0);
  3765  03AA  120E               	bcf	14,4	;volatile
  3766                           
  3767                           ;drv_74hc595.c: 51: for(i=0; i<8; i++)
  3768  03AB  01F7               	clrf	Display_put@i
  3769  03AC                     L3:	
  3770  03AC  3008               	movlw	8
  3771  03AD  0277               	subwf	Display_put@i,w
  3772  03AE  1803               	btfsc	3,0
  3773  03AF  0008               	return
  3774                           
  3775                           ;drv_74hc595.c: 52: {
  3776                           ;drv_74hc595.c: 53: RC3 = ((display_segment[digit] & (1<<i))==0)?0:1;
  3777  03B0  0876               	movf	Display_put@digit,w
  3778  03B1  3EB9               	addlw	low (Display_put@display_segment| (0+32768))
  3779  03B2  0084               	movwf	4
  3780  03B3  3081               	movlw	high (Display_put@display_segment| (0+32768))
  3781  03B4  1803               	skipnc
  3782  03B5  3E01               	addlw	1
  3783  03B6  0085               	movwf	5
  3784  03B7  0800               	movf	0,w	;code access
  3785  03B8  00F4               	movwf	??_Display_put
  3786  03B9  3001               	movlw	1
  3787  03BA  00F5               	movwf	??_Display_put+1
  3788  03BB  0A77               	incf	Display_put@i,w
  3789  03BC  2BBE               	goto	u714
  3790  03BD                     u715:	
  3791  03BD  35F5               	lslf	??_Display_put+1,f
  3792  03BE                     u714:	
  3793  03BE  0B89               	decfsz	9,f
  3794  03BF  2BBD               	goto	u715
  3795  03C0  0875               	movf	??_Display_put+1,w
  3796  03C1  0574               	andwf	??_Display_put,w
  3797  03C2  1903               	btfsc	3,2
  3798  03C3  2BC7               	goto	u720
  3799  03C4  0020               	movlb	0	; select bank0
  3800  03C5  158E               	bsf	14,3	;volatile
  3801  03C6  2BC9               	goto	l1246
  3802  03C7                     u720:	
  3803  03C7  0020               	movlb	0	; select bank0
  3804  03C8  118E               	bcf	14,3	;volatile
  3805  03C9                     l1246:	
  3806                           ;drv_74hc595.c: 54: do { LATC5 = 1; } while(0);
  3807                           
  3808  03C9  0022               	movlb	2	; select bank2
  3809  03CA  168E               	bsf	14,5	;volatile
  3810                           
  3811                           ;drv_74hc595.c: 55: do { LATC5 = 0; } while(0);
  3812  03CB  128E               	bcf	14,5	;volatile
  3813  03CC  3001               	movlw	1
  3814  03CD  00F4               	movwf	??_Display_put
  3815  03CE  0874               	movf	??_Display_put,w
  3816  03CF  07F7               	addwf	Display_put@i,f
  3817  03D0  2BAC               	goto	L3
  3818  03D1                     __end_of_Display_put:	
  3819                           
  3820                           	psect	text13
  3821  04CE                     __ptext13:	
  3822 ;; *************** function _SYSTEM_Initialize *****************
  3823 ;; Defined at:
  3824 ;;		line 67 in file "mcc_generated_files/mcc.c"
  3825 ;; Parameters:    Size  Location     Type
  3826 ;;		None
  3827 ;; Auto vars:     Size  Location     Type
  3828 ;;		None
  3829 ;; Return value:  Size  Location     Type
  3830 ;;		None               void
  3831 ;; Registers used:
  3832 ;;		wreg, status,2, status,0, pclath, cstack
  3833 ;; Tracked objects:
  3834 ;;		On entry : 0/0
  3835 ;;		On exit  : 0/0
  3836 ;;		Unchanged: 0/0
  3837 ;; Data sizes:     COMMON   BANK0   BANK1
  3838 ;;      Params:         0       0       0
  3839 ;;      Locals:         0       0       0
  3840 ;;      Temps:          0       0       0
  3841 ;;      Totals:         0       0       0
  3842 ;;Total ram usage:        0 bytes
  3843 ;; Hardware stack levels used:    1
  3844 ;; Hardware stack levels required when called:    5
  3845 ;; This function calls:
  3846 ;;		_ADC_Initialize
  3847 ;;		_OSCILLATOR_Initialize
  3848 ;;		_PIN_MANAGER_Initialize
  3849 ;;		_TMR0_Initialize
  3850 ;;		_TMR1_Initialize
  3851 ;; This function is called by:
  3852 ;;		_main
  3853 ;; This function uses a non-reentrant model
  3854 ;;
  3855                           
  3856                           
  3857                           ;psect for function _SYSTEM_Initialize
  3858  04CE                     _SYSTEM_Initialize:	
  3859                           
  3860                           ;mcc.c: 68: OSCILLATOR_Initialize();
  3861                           
  3862                           ;incstack = 0
  3863                           ; Regs used in _SYSTEM_Initialize: [wreg+status,2+status,0+pclath+cstack]
  3864  04CE  24DF               	fcall	_OSCILLATOR_Initialize
  3865                           
  3866                           ;mcc.c: 69: PIN_MANAGER_Initialize();
  3867  04CF  247F               	fcall	_PIN_MANAGER_Initialize
  3868                           
  3869                           ;mcc.c: 70: ADC_Initialize();
  3870  04D0  24B7               	fcall	_ADC_Initialize
  3871                           
  3872                           ;mcc.c: 71: TMR1_Initialize();
  3873  04D1  2497               	fcall	_TMR1_Initialize
  3874                           
  3875                           ;mcc.c: 72: TMR0_Initialize();
  3876  04D2  24A8               	fcall	_TMR0_Initialize
  3877  04D3  0008               	return
  3878  04D4                     __end_of_SYSTEM_Initialize:	
  3879                           
  3880                           	psect	text14
  3881  0497                     __ptext14:	
  3882 ;; *************** function _TMR1_Initialize *****************
  3883 ;; Defined at:
  3884 ;;		line 63 in file "mcc_generated_files/tmr1.c"
  3885 ;; Parameters:    Size  Location     Type
  3886 ;;		None
  3887 ;; Auto vars:     Size  Location     Type
  3888 ;;		None
  3889 ;; Return value:  Size  Location     Type
  3890 ;;		None               void
  3891 ;; Registers used:
  3892 ;;		wreg, status,2, status,0, pclath, cstack
  3893 ;; Tracked objects:
  3894 ;;		On entry : 0/0
  3895 ;;		On exit  : 0/0
  3896 ;;		Unchanged: 0/0
  3897 ;; Data sizes:     COMMON   BANK0   BANK1
  3898 ;;      Params:         0       0       0
  3899 ;;      Locals:         0       0       0
  3900 ;;      Temps:          0       0       0
  3901 ;;      Totals:         0       0       0
  3902 ;;Total ram usage:        0 bytes
  3903 ;; Hardware stack levels used:    1
  3904 ;; Hardware stack levels required when called:    4
  3905 ;; This function calls:
  3906 ;;		_TMR1_StartTimer
  3907 ;; This function is called by:
  3908 ;;		_SYSTEM_Initialize
  3909 ;; This function uses a non-reentrant model
  3910 ;;
  3911                           
  3912                           
  3913                           ;psect for function _TMR1_Initialize
  3914  0497                     _TMR1_Initialize:	
  3915                           
  3916                           ;tmr1.c: 67: T1CON = 0x30;
  3917                           
  3918                           ;incstack = 0
  3919                           ; Regs used in _TMR1_Initialize: [wreg+status,2+status,0+pclath+cstack]
  3920  0497  3030               	movlw	48
  3921  0498  0020               	movlb	0	; select bank0
  3922  0499  0098               	movwf	24	;volatile
  3923                           
  3924                           ;tmr1.c: 70: T1GCON = 0x00;
  3925  049A  0199               	clrf	25	;volatile
  3926                           
  3927                           ;tmr1.c: 73: TMR1H = 0x0A;
  3928  049B  300A               	movlw	10
  3929  049C  0097               	movwf	23	;volatile
  3930                           
  3931                           ;tmr1.c: 76: TMR1L = 0xFF;
  3932  049D  30FF               	movlw	255
  3933  049E  0096               	movwf	22	;volatile
  3934                           
  3935                           ;tmr1.c: 79: timer1ReloadVal = (TMR1H << 8) | TMR1L;
  3936  049F  0817               	movf	23,w	;volatile
  3937  04A0  00FB               	movwf	_timer1ReloadVal+1	;volatile
  3938  04A1  0816               	movf	22,w	;volatile
  3939  04A2  00FA               	movwf	_timer1ReloadVal	;volatile
  3940                           
  3941                           ;tmr1.c: 82: PIR1bits.TMR1IF = 0;
  3942  04A3  1011               	bcf	17,0	;volatile
  3943                           
  3944                           ;tmr1.c: 85: PIE1bits.TMR1IE = 1;
  3945  04A4  0021               	movlb	1	; select bank1
  3946  04A5  1411               	bsf	17,0	;volatile
  3947                           
  3948                           ;tmr1.c: 88: TMR1_StartTimer();
  3949  04A6  24E4               	fcall	_TMR1_StartTimer
  3950  04A7  0008               	return
  3951  04A8                     __end_of_TMR1_Initialize:	
  3952                           
  3953                           	psect	text15
  3954  04E4                     __ptext15:	
  3955 ;; *************** function _TMR1_StartTimer *****************
  3956 ;; Defined at:
  3957 ;;		line 91 in file "mcc_generated_files/tmr1.c"
  3958 ;; Parameters:    Size  Location     Type
  3959 ;;		None
  3960 ;; Auto vars:     Size  Location     Type
  3961 ;;		None
  3962 ;; Return value:  Size  Location     Type
  3963 ;;		None               void
  3964 ;; Registers used:
  3965 ;;		None
  3966 ;; Tracked objects:
  3967 ;;		On entry : 0/0
  3968 ;;		On exit  : 0/0
  3969 ;;		Unchanged: 0/0
  3970 ;; Data sizes:     COMMON   BANK0   BANK1
  3971 ;;      Params:         0       0       0
  3972 ;;      Locals:         0       0       0
  3973 ;;      Temps:          0       0       0
  3974 ;;      Totals:         0       0       0
  3975 ;;Total ram usage:        0 bytes
  3976 ;; Hardware stack levels used:    1
  3977 ;; Hardware stack levels required when called:    3
  3978 ;; This function calls:
  3979 ;;		Nothing
  3980 ;; This function is called by:
  3981 ;;		_TMR1_Initialize
  3982 ;; This function uses a non-reentrant model
  3983 ;;
  3984                           
  3985                           
  3986                           ;psect for function _TMR1_StartTimer
  3987  04E4                     _TMR1_StartTimer:	
  3988                           
  3989                           ;tmr1.c: 93: T1CONbits.TMR1ON = 1;
  3990                           
  3991                           ;incstack = 0
  3992                           ; Regs used in _TMR1_StartTimer: []
  3993  04E4  0020               	movlb	0	; select bank0
  3994  04E5  1418               	bsf	24,0	;volatile
  3995  04E6  0008               	return
  3996  04E7                     __end_of_TMR1_StartTimer:	
  3997                           
  3998                           	psect	text16
  3999  04A8                     __ptext16:	
  4000 ;; *************** function _TMR0_Initialize *****************
  4001 ;; Defined at:
  4002 ;;		line 64 in file "mcc_generated_files/tmr0.c"
  4003 ;; Parameters:    Size  Location     Type
  4004 ;;		None
  4005 ;; Auto vars:     Size  Location     Type
  4006 ;;		None
  4007 ;; Return value:  Size  Location     Type
  4008 ;;		None               void
  4009 ;; Registers used:
  4010 ;;		wreg, status,2
  4011 ;; Tracked objects:
  4012 ;;		On entry : 0/0
  4013 ;;		On exit  : 0/0
  4014 ;;		Unchanged: 0/0
  4015 ;; Data sizes:     COMMON   BANK0   BANK1
  4016 ;;      Params:         0       0       0
  4017 ;;      Locals:         0       0       0
  4018 ;;      Temps:          1       0       0
  4019 ;;      Totals:         1       0       0
  4020 ;;Total ram usage:        1 bytes
  4021 ;; Hardware stack levels used:    1
  4022 ;; Hardware stack levels required when called:    3
  4023 ;; This function calls:
  4024 ;;		Nothing
  4025 ;; This function is called by:
  4026 ;;		_SYSTEM_Initialize
  4027 ;; This function uses a non-reentrant model
  4028 ;;
  4029                           
  4030                           
  4031                           ;psect for function _TMR0_Initialize
  4032  04A8                     _TMR0_Initialize:	
  4033                           
  4034                           ;tmr0.c: 68: OPTION_REG = (OPTION_REG & 0xC0) | 0xD3 & 0x3F;
  4035                           
  4036                           ;incstack = 0
  4037                           ; Regs used in _TMR0_Initialize: [wreg+status,2]
  4038  04A8  0021               	movlb	1	; select bank1
  4039  04A9  0815               	movf	21,w	;volatile
  4040  04AA  39C0               	andlw	192
  4041  04AB  3813               	iorlw	19
  4042  04AC  0095               	movwf	21	;volatile
  4043                           
  4044                           ;tmr0.c: 71: TMR0 = 0x06;
  4045  04AD  3006               	movlw	6
  4046  04AE  0020               	movlb	0	; select bank0
  4047  04AF  0095               	movwf	21	;volatile
  4048                           
  4049                           ;tmr0.c: 74: timer0ReloadVal = 6;
  4050  04B0  3006               	movlw	6
  4051  04B1  00F2               	movwf	??_TMR0_Initialize
  4052  04B2  0872               	movf	??_TMR0_Initialize,w
  4053  04B3  00DE               	movwf	_timer0ReloadVal	;volatile
  4054                           
  4055                           ;tmr0.c: 77: INTCONbits.TMR0IF = 0;
  4056  04B4  110B               	bcf	11,2	;volatile
  4057                           
  4058                           ;tmr0.c: 80: INTCONbits.TMR0IE = 1;
  4059  04B5  168B               	bsf	11,5	;volatile
  4060  04B6  0008               	return
  4061  04B7                     __end_of_TMR0_Initialize:	
  4062                           
  4063                           	psect	text17
  4064  047F                     __ptext17:	
  4065 ;; *************** function _PIN_MANAGER_Initialize *****************
  4066 ;; Defined at:
  4067 ;;		line 50 in file "mcc_generated_files/pin_manager.c"
  4068 ;; Parameters:    Size  Location     Type
  4069 ;;		None
  4070 ;; Auto vars:     Size  Location     Type
  4071 ;;		None
  4072 ;; Return value:  Size  Location     Type
  4073 ;;		None               void
  4074 ;; Registers used:
  4075 ;;		wreg, status,2
  4076 ;; Tracked objects:
  4077 ;;		On entry : 0/0
  4078 ;;		On exit  : 0/0
  4079 ;;		Unchanged: 0/0
  4080 ;; Data sizes:     COMMON   BANK0   BANK1
  4081 ;;      Params:         0       0       0
  4082 ;;      Locals:         0       0       0
  4083 ;;      Temps:          0       0       0
  4084 ;;      Totals:         0       0       0
  4085 ;;Total ram usage:        0 bytes
  4086 ;; Hardware stack levels used:    1
  4087 ;; Hardware stack levels required when called:    3
  4088 ;; This function calls:
  4089 ;;		Nothing
  4090 ;; This function is called by:
  4091 ;;		_SYSTEM_Initialize
  4092 ;; This function uses a non-reentrant model
  4093 ;;
  4094                           
  4095                           
  4096                           ;psect for function _PIN_MANAGER_Initialize
  4097  047F                     _PIN_MANAGER_Initialize:	
  4098                           
  4099                           ;pin_manager.c: 51: LATA = 0x00;
  4100                           
  4101                           ;incstack = 0
  4102                           ; Regs used in _PIN_MANAGER_Initialize: [wreg+status,2]
  4103  047F  0022               	movlb	2	; select bank2
  4104  0480  018C               	clrf	12	;volatile
  4105                           
  4106                           ;pin_manager.c: 52: TRISA = 0x3F;
  4107  0481  303F               	movlw	63
  4108  0482  0021               	movlb	1	; select bank1
  4109  0483  008C               	movwf	12	;volatile
  4110                           
  4111                           ;pin_manager.c: 53: ANSELA = 0x17;
  4112  0484  3017               	movlw	23
  4113  0485  0023               	movlb	3	; select bank3
  4114  0486  008C               	movwf	12	;volatile
  4115                           
  4116                           ;pin_manager.c: 54: WPUA = 0x00;
  4117  0487  0024               	movlb	4	; select bank4
  4118  0488  018C               	clrf	12	;volatile
  4119                           
  4120                           ;pin_manager.c: 56: LATC = 0x10;
  4121  0489  3010               	movlw	16
  4122  048A  0022               	movlb	2	; select bank2
  4123  048B  008E               	movwf	14	;volatile
  4124                           
  4125                           ;pin_manager.c: 57: TRISC = 0x07;
  4126  048C  3007               	movlw	7
  4127  048D  0021               	movlb	1	; select bank1
  4128  048E  008E               	movwf	14	;volatile
  4129                           
  4130                           ;pin_manager.c: 58: ANSELC = 0x07;
  4131  048F  3007               	movlw	7
  4132  0490  0023               	movlb	3	; select bank3
  4133  0491  008E               	movwf	14	;volatile
  4134                           
  4135                           ;pin_manager.c: 60: OPTION_REGbits.nWPUEN = 0x01;
  4136  0492  0021               	movlb	1	; select bank1
  4137  0493  1795               	bsf	21,7	;volatile
  4138                           
  4139                           ;pin_manager.c: 62: APFCON = 0x00;
  4140  0494  0022               	movlb	2	; select bank2
  4141  0495  019D               	clrf	29	;volatile
  4142  0496  0008               	return
  4143  0497                     __end_of_PIN_MANAGER_Initialize:	
  4144                           
  4145                           	psect	text18
  4146  04DF                     __ptext18:	
  4147 ;; *************** function _OSCILLATOR_Initialize *****************
  4148 ;; Defined at:
  4149 ;;		line 75 in file "mcc_generated_files/mcc.c"
  4150 ;; Parameters:    Size  Location     Type
  4151 ;;		None
  4152 ;; Auto vars:     Size  Location     Type
  4153 ;;		None
  4154 ;; Return value:  Size  Location     Type
  4155 ;;		None               void
  4156 ;; Registers used:
  4157 ;;		wreg, status,2
  4158 ;; Tracked objects:
  4159 ;;		On entry : 0/0
  4160 ;;		On exit  : 0/0
  4161 ;;		Unchanged: 0/0
  4162 ;; Data sizes:     COMMON   BANK0   BANK1
  4163 ;;      Params:         0       0       0
  4164 ;;      Locals:         0       0       0
  4165 ;;      Temps:          0       0       0
  4166 ;;      Totals:         0       0       0
  4167 ;;Total ram usage:        0 bytes
  4168 ;; Hardware stack levels used:    1
  4169 ;; Hardware stack levels required when called:    3
  4170 ;; This function calls:
  4171 ;;		Nothing
  4172 ;; This function is called by:
  4173 ;;		_SYSTEM_Initialize
  4174 ;; This function uses a non-reentrant model
  4175 ;;
  4176                           
  4177                           
  4178                           ;psect for function _OSCILLATOR_Initialize
  4179  04DF                     _OSCILLATOR_Initialize:	
  4180                           
  4181                           ;mcc.c: 77: OSCCON = 0x7A;
  4182                           
  4183                           ;incstack = 0
  4184                           ; Regs used in _OSCILLATOR_Initialize: [wreg+status,2]
  4185  04DF  307A               	movlw	122
  4186  04E0  0021               	movlb	1	; select bank1
  4187  04E1  0099               	movwf	25	;volatile
  4188                           
  4189                           ;mcc.c: 79: OSCSTAT = 0x00;
  4190  04E2  019A               	clrf	26	;volatile
  4191  04E3  0008               	return
  4192  04E4                     __end_of_OSCILLATOR_Initialize:	
  4193                           
  4194                           	psect	text19
  4195  04B7                     __ptext19:	
  4196 ;; *************** function _ADC_Initialize *****************
  4197 ;; Defined at:
  4198 ;;		line 65 in file "mcc_generated_files/adc.c"
  4199 ;; Parameters:    Size  Location     Type
  4200 ;;		None
  4201 ;; Auto vars:     Size  Location     Type
  4202 ;;		None
  4203 ;; Return value:  Size  Location     Type
  4204 ;;		None               void
  4205 ;; Registers used:
  4206 ;;		wreg, status,2
  4207 ;; Tracked objects:
  4208 ;;		On entry : 0/0
  4209 ;;		On exit  : 0/0
  4210 ;;		Unchanged: 0/0
  4211 ;; Data sizes:     COMMON   BANK0   BANK1
  4212 ;;      Params:         0       0       0
  4213 ;;      Locals:         0       0       0
  4214 ;;      Temps:          0       0       0
  4215 ;;      Totals:         0       0       0
  4216 ;;Total ram usage:        0 bytes
  4217 ;; Hardware stack levels used:    1
  4218 ;; Hardware stack levels required when called:    3
  4219 ;; This function calls:
  4220 ;;		Nothing
  4221 ;; This function is called by:
  4222 ;;		_SYSTEM_Initialize
  4223 ;; This function uses a non-reentrant model
  4224 ;;
  4225                           
  4226                           
  4227                           ;psect for function _ADC_Initialize
  4228  04B7                     _ADC_Initialize:	
  4229                           
  4230                           ;adc.c: 69: ADCON0 = 0x01;
  4231                           
  4232                           ;incstack = 0
  4233                           ; Regs used in _ADC_Initialize: [wreg+status,2]
  4234  04B7  3001               	movlw	1
  4235  04B8  0021               	movlb	1	; select bank1
  4236  04B9  009D               	movwf	29	;volatile
  4237                           
  4238                           ;adc.c: 72: ADCON1 = 0xD0;
  4239  04BA  30D0               	movlw	208
  4240  04BB  009E               	movwf	30	;volatile
  4241                           
  4242                           ;adc.c: 75: ADCON2 = 0x00;
  4243  04BC  019F               	clrf	31	;volatile
  4244                           
  4245                           ;adc.c: 78: ADRESL = 0x00;
  4246  04BD  019B               	clrf	27	;volatile
  4247                           
  4248                           ;adc.c: 81: ADRESH = 0x00;
  4249  04BE  019C               	clrf	28	;volatile
  4250  04BF  0008               	return
  4251  04C0                     __end_of_ADC_Initialize:	
  4252                           
  4253                           	psect	intentry
  4254  0004                     __pintentry:	
  4255 ;; *************** function _INTERRUPT_InterruptManager *****************
  4256 ;; Defined at:
  4257 ;;		line 52 in file "mcc_generated_files/interrupt_manager.c"
  4258 ;; Parameters:    Size  Location     Type
  4259 ;;		None
  4260 ;; Auto vars:     Size  Location     Type
  4261 ;;		None
  4262 ;; Return value:  Size  Location     Type
  4263 ;;		None               void
  4264 ;; Registers used:
  4265 ;;		wreg, status,2, status,0, pclath, cstack
  4266 ;; Tracked objects:
  4267 ;;		On entry : 0/0
  4268 ;;		On exit  : 0/0
  4269 ;;		Unchanged: 0/0
  4270 ;; Data sizes:     COMMON   BANK0   BANK1
  4271 ;;      Params:         0       0       0
  4272 ;;      Locals:         0       0       0
  4273 ;;      Temps:          2       0       0
  4274 ;;      Totals:         2       0       0
  4275 ;;Total ram usage:        2 bytes
  4276 ;; Hardware stack levels used:    1
  4277 ;; Hardware stack levels required when called:    2
  4278 ;; This function calls:
  4279 ;;		_TMR0_ISR
  4280 ;;		_TMR1_ISR
  4281 ;; This function is called by:
  4282 ;;		Interrupt level 1
  4283 ;; This function uses a non-reentrant model
  4284 ;;
  4285                           
  4286  0004                     _INTERRUPT_InterruptManager:	
  4287                           
  4288                           ;incstack = 0
  4289                           ; Regs used in _INTERRUPT_InterruptManager: [wreg+status,2+status,0+pclath+cstack]
  4290  0004  147E               	bsf	126,0	;set compiler interrupt flag (level 1)
  4291  0005  3180               	pagesel	$
  4292  0006  0020               	movlb	0	; select bank0
  4293  0007  087F               	movf	127,w
  4294  0008  00F1               	movwf	??_INTERRUPT_InterruptManager+1
  4295                           
  4296                           ;interrupt_manager.c: 54: if (PIE1bits.TMR1IE == 1 && PIR1bits.TMR1IF == 1) {
  4297  0009  0021               	movlb	1	; select bank1
  4298  000A  1C11               	btfss	17,0	;volatile
  4299  000B  2816               	goto	i1l205
  4300  000C  0020               	movlb	0	; select bank0
  4301  000D  1C11               	btfss	17,0	;volatile
  4302  000E  2816               	goto	i1l205
  4303                           
  4304                           ;interrupt_manager.c: 55: TMR1_ISR();
  4305  000F  24C0               	fcall	_TMR1_ISR
  4306                           
  4307                           ;interrupt_manager.c: 56: wlData.states=LEVEL_DISPLAY;
  4308  0010  3002               	movlw	2
  4309  0011  00F0               	movwf	??_INTERRUPT_InterruptManager
  4310  0012  0870               	movf	??_INTERRUPT_InterruptManager,w
  4311  0013  0020               	movlb	0	; select bank0
  4312  0014  00D7               	movwf	_wlData
  4313                           
  4314                           ;interrupt_manager.c: 57: } else if (INTCONbits.TMR0IE == 1 && INTCONbits.TMR0IF == 1) {
  4315  0015  281A               	goto	i1l209
  4316  0016                     i1l205:	
  4317  0016  1A8B               	btfsc	11,5	;volatile
  4318  0017  1D0B               	btfss	11,2	;volatile
  4319  0018  281A               	goto	i1l209
  4320                           
  4321                           ;interrupt_manager.c: 58: TMR0_ISR();
  4322  0019  24D4               	fcall	_TMR0_ISR
  4323  001A                     i1l209:	
  4324                           ;interrupt_manager.c: 59: } else {
  4325                           
  4326  001A  0871               	movf	??_INTERRUPT_InterruptManager+1,w
  4327  001B  0020               	movlb	0	; select bank0
  4328  001C  00FF               	movwf	127
  4329  001D  107E               	bcf	126,0	;clear compiler interrupt flag (level 1)
  4330  001E  0009               	retfie
  4331  001F                     __end_of_INTERRUPT_InterruptManager:	
  4332                           
  4333                           	psect	text21
  4334  04C0                     __ptext21:	
  4335 ;; *************** function _TMR1_ISR *****************
  4336 ;; Defined at:
  4337 ;;		line 141 in file "mcc_generated_files/tmr1.c"
  4338 ;; Parameters:    Size  Location     Type
  4339 ;;		None
  4340 ;; Auto vars:     Size  Location     Type
  4341 ;;		None
  4342 ;; Return value:  Size  Location     Type
  4343 ;;		None               void
  4344 ;; Registers used:
  4345 ;;		wreg, status,2, status,0, pclath, cstack
  4346 ;; Tracked objects:
  4347 ;;		On entry : 0/0
  4348 ;;		On exit  : 0/0
  4349 ;;		Unchanged: 0/0
  4350 ;; Data sizes:     COMMON   BANK0   BANK1
  4351 ;;      Params:         0       0       0
  4352 ;;      Locals:         0       0       0
  4353 ;;      Temps:          0       0       0
  4354 ;;      Totals:         0       0       0
  4355 ;;Total ram usage:        0 bytes
  4356 ;; Hardware stack levels used:    1
  4357 ;; Hardware stack levels required when called:    1
  4358 ;; This function calls:
  4359 ;;		_TMR1_CallBack
  4360 ;; This function is called by:
  4361 ;;		_INTERRUPT_InterruptManager
  4362 ;; This function uses a non-reentrant model
  4363 ;;
  4364                           
  4365                           
  4366                           ;psect for function _TMR1_ISR
  4367  04C0                     _TMR1_ISR:	
  4368                           
  4369                           ;tmr1.c: 144: PIR1bits.TMR1IF = 0;
  4370                           
  4371                           ;incstack = 0
  4372                           ; Regs used in _TMR1_ISR: [wreg+status,2+status,0+pclath+cstack]
  4373  04C0  0020               	movlb	0	; select bank0
  4374  04C1  1011               	bcf	17,0	;volatile
  4375                           
  4376                           ;tmr1.c: 146: TMR1H = (timer1ReloadVal >> 8);
  4377  04C2  087B               	movf	_timer1ReloadVal+1,w	;volatile
  4378  04C3  0097               	movwf	23	;volatile
  4379                           
  4380                           ;tmr1.c: 147: TMR1L = timer1ReloadVal;
  4381  04C4  087A               	movf	_timer1ReloadVal,w	;volatile
  4382  04C5  0096               	movwf	22	;volatile
  4383                           
  4384                           ;tmr1.c: 151: TMR1_CallBack();
  4385  04C6  24E7               	fcall	_TMR1_CallBack
  4386  04C7  0008               	return
  4387  04C8                     __end_of_TMR1_ISR:	
  4388                           
  4389                           	psect	text22
  4390  04E7                     __ptext22:	
  4391 ;; *************** function _TMR1_CallBack *****************
  4392 ;; Defined at:
  4393 ;;		line 155 in file "mcc_generated_files/tmr1.c"
  4394 ;; Parameters:    Size  Location     Type
  4395 ;;		None
  4396 ;; Auto vars:     Size  Location     Type
  4397 ;;		None
  4398 ;; Return value:  Size  Location     Type
  4399 ;;		None               void
  4400 ;; Registers used:
  4401 ;;		None
  4402 ;; Tracked objects:
  4403 ;;		On entry : 0/0
  4404 ;;		On exit  : 0/0
  4405 ;;		Unchanged: 0/0
  4406 ;; Data sizes:     COMMON   BANK0   BANK1
  4407 ;;      Params:         0       0       0
  4408 ;;      Locals:         0       0       0
  4409 ;;      Temps:          0       0       0
  4410 ;;      Totals:         0       0       0
  4411 ;;Total ram usage:        0 bytes
  4412 ;; Hardware stack levels used:    1
  4413 ;; This function calls:
  4414 ;;		Nothing
  4415 ;; This function is called by:
  4416 ;;		_TMR1_ISR
  4417 ;; This function uses a non-reentrant model
  4418 ;;
  4419                           
  4420                           
  4421                           ;psect for function _TMR1_CallBack
  4422  04E7                     _TMR1_CallBack:	
  4423                           
  4424                           ;incstack = 0
  4425                           ; Regs used in _TMR1_CallBack: []
  4426  04E7  0008               	return
  4427  04E8                     __end_of_TMR1_CallBack:	
  4428                           
  4429                           	psect	text23
  4430  04D4                     __ptext23:	
  4431 ;; *************** function _TMR0_ISR *****************
  4432 ;; Defined at:
  4433 ;;		line 101 in file "mcc_generated_files/tmr0.c"
  4434 ;; Parameters:    Size  Location     Type
  4435 ;;		None
  4436 ;; Auto vars:     Size  Location     Type
  4437 ;;		None
  4438 ;; Return value:  Size  Location     Type
  4439 ;;		None               void
  4440 ;; Registers used:
  4441 ;;		wreg, status,2, status,0, pclath, cstack
  4442 ;; Tracked objects:
  4443 ;;		On entry : 0/0
  4444 ;;		On exit  : 0/0
  4445 ;;		Unchanged: 0/0
  4446 ;; Data sizes:     COMMON   BANK0   BANK1
  4447 ;;      Params:         0       0       0
  4448 ;;      Locals:         0       0       0
  4449 ;;      Temps:          0       0       0
  4450 ;;      Totals:         0       0       0
  4451 ;;Total ram usage:        0 bytes
  4452 ;; Hardware stack levels used:    1
  4453 ;; Hardware stack levels required when called:    1
  4454 ;; This function calls:
  4455 ;;		_TMR0_CallBack
  4456 ;; This function is called by:
  4457 ;;		_INTERRUPT_InterruptManager
  4458 ;; This function uses a non-reentrant model
  4459 ;;
  4460                           
  4461                           
  4462                           ;psect for function _TMR0_ISR
  4463  04D4                     _TMR0_ISR:	
  4464                           
  4465                           ;tmr0.c: 104: INTCONbits.TMR0IF = 0;
  4466                           
  4467                           ;incstack = 0
  4468                           ; Regs used in _TMR0_ISR: [wreg+status,2+status,0+pclath+cstack]
  4469  04D4  110B               	bcf	11,2	;volatile
  4470                           
  4471                           ;tmr0.c: 106: TMR0 = timer0ReloadVal;
  4472  04D5  0020               	movlb	0	; select bank0
  4473  04D6  085E               	movf	_timer0ReloadVal,w	;volatile
  4474  04D7  0095               	movwf	21	;volatile
  4475                           
  4476                           ;tmr0.c: 110: TMR0_CallBack();
  4477  04D8  24E8               	fcall	_TMR0_CallBack
  4478  04D9  0008               	return
  4479  04DA                     __end_of_TMR0_ISR:	
  4480                           
  4481                           	psect	text24
  4482  04E8                     __ptext24:	
  4483 ;; *************** function _TMR0_CallBack *****************
  4484 ;; Defined at:
  4485 ;;		line 115 in file "mcc_generated_files/tmr0.c"
  4486 ;; Parameters:    Size  Location     Type
  4487 ;;		None
  4488 ;; Auto vars:     Size  Location     Type
  4489 ;;		None
  4490 ;; Return value:  Size  Location     Type
  4491 ;;		None               void
  4492 ;; Registers used:
  4493 ;;		None
  4494 ;; Tracked objects:
  4495 ;;		On entry : 0/0
  4496 ;;		On exit  : 0/0
  4497 ;;		Unchanged: 0/0
  4498 ;; Data sizes:     COMMON   BANK0   BANK1
  4499 ;;      Params:         0       0       0
  4500 ;;      Locals:         0       0       0
  4501 ;;      Temps:          0       0       0
  4502 ;;      Totals:         0       0       0
  4503 ;;Total ram usage:        0 bytes
  4504 ;; Hardware stack levels used:    1
  4505 ;; This function calls:
  4506 ;;		Nothing
  4507 ;; This function is called by:
  4508 ;;		_TMR0_ISR
  4509 ;; This function uses a non-reentrant model
  4510 ;;
  4511                           
  4512                           
  4513                           ;psect for function _TMR0_CallBack
  4514  04E8                     _TMR0_CallBack:	
  4515                           
  4516                           ;incstack = 0
  4517                           ; Regs used in _TMR0_CallBack: []
  4518  04E8  0008               	return
  4519  04E9                     __end_of_TMR0_CallBack:	
  4520  007E                     btemp	set	126	;btemp
  4521  007E                     int$flags	set	126
  4522  007E                     wtemp	set	126
  4523  007E                     wtemp0	set	126
  4524  0080                     wtemp1	set	128
  4525  0082                     wtemp2	set	130
  4526  0084                     wtemp3	set	132
  4527  0086                     wtemp4	set	134
  4528  0088                     wtemp5	set	136
  4529  007F                     wtemp6	set	127
  4530  007E                     ttemp	set	126
  4531  007E                     ttemp0	set	126
  4532  0081                     ttemp1	set	129
  4533  0084                     ttemp2	set	132
  4534  0087                     ttemp3	set	135
  4535  007F                     ttemp4	set	127
  4536  007E                     ltemp	set	126
  4537  007E                     ltemp0	set	126
  4538  0082                     ltemp1	set	130
  4539  0086                     ltemp2	set	134
  4540  0080                     ltemp3	set	128


Data Sizes:
    Strings     0
    Constant    411
    Data        0
    BSS         19
    Persistent  3
    Stack       0

Auto Spaces:
    Space          Size  Autos    Used
    COMMON           14     10      12
    BANK0            80     43      63
    BANK1            32      0       0

Pointer List with Targets:

    utoa@buf	PTR unsigned char  size(1) Largest target is 6
		 -> Display_value@myBuffer(BANK0[6]), 

    sp__utoa	PTR unsigned char  size(1) Largest target is 6
		 -> Display_value@myBuffer(BANK0[6]), 

    itoa@buf	PTR unsigned char  size(1) Largest target is 6
		 -> Display_value@myBuffer(BANK0[6]), 

    itoa@cp	PTR unsigned char  size(1) Largest target is 6
		 -> Display_value@myBuffer(BANK0[6]), 

    GetStringReverse@str	PTR unsigned char  size(1) Largest target is 6
		 -> Display_value@myBuffer(BANK0[6]), 

    GetStringReverse@sptr	PTR unsigned char  size(1) Largest target is 6
		 -> Display_value@myBuffer(BANK0[6]), 

    GetStringReverse@buff	PTR unsigned char  size(1) Largest target is 6
		 -> Display_value@numChar(BANK0[6]), 

    GetStringReverse@rptr	PTR unsigned char  size(1) Largest target is 6
		 -> Display_value@numChar(BANK0[6]), 

    Display_put@dig	PTR unsigned char  size(2) Largest target is 4096
		 -> NULL(NULL[0]), RAM(DATA[4096]), RAM(DATA[4096]), 

    sp__itoa	PTR unsigned char  size(1) Largest target is 6
		 -> Display_value@myBuffer(BANK0[6]), 


Critical Paths under _main in COMMON

    _WaterLevel_Lookup->___lwdiv
    _ReadWaterLevel->___lwdiv
    _itoa->_utoa
    _utoa->___lwdiv
    ___lwdiv->___wmul
    _SYSTEM_Initialize->_TMR0_Initialize

Critical Paths under _INTERRUPT_InterruptManager in COMMON

    None.

Critical Paths under _main in BANK0

    _main->_WaterLevelDisplay_StateMachine
    _WaterLevelDisplay_StateMachine->_Display_value
    _WaterLevel_Lookup->_ReadWaterLevel
    _ReadWaterLevel->___lwdiv
    _Display_value->_itoa
    _itoa->_utoa
    _utoa->___lwdiv

Critical Paths under _INTERRUPT_InterruptManager in BANK0

    None.

Critical Paths under _main in BANK1

    None.

Critical Paths under _INTERRUPT_InterruptManager in BANK1

    None.

Call Graph Tables:

 ---------------------------------------------------------------------------------
 (Depth) Function   	        Calls       Base Space   Used Autos Params    Refs
 ---------------------------------------------------------------------------------
 (0) _main                                                 0     0      0    6004
                  _SYSTEM_Initialize
     _WaterLevelDisplay_StateMachine
 ---------------------------------------------------------------------------------
 (1) _WaterLevelDisplay_StateMachine                       2     2      0    6004
                                             41 BANK0      2     2      0
                      _Display_value
                  _WaterLevel_Lookup
 ---------------------------------------------------------------------------------
 (2) _WaterLevel_Lookup                                    9     6      3    2672
                                             15 BANK0      9     6      3
                     _ReadWaterLevel
                            ___lwdiv
 ---------------------------------------------------------------------------------
 (3) _ReadWaterLevel                                       8     6      2    1491
                                              7 BANK0      8     6      2
                  _ADC_GetConversion
                            ___lwdiv
                             ___wmul
 ---------------------------------------------------------------------------------
 (4) ___wmul                                               6     2      4     476
                                              2 COMMON     6     2      4
 ---------------------------------------------------------------------------------
 (4) _ADC_GetConversion                                    4     2      2      22
                                              2 COMMON     4     2      2
 ---------------------------------------------------------------------------------
 (2) _Display_value                                       19    17      2    3332
                                             22 BANK0     19    17      2
                        _Display_put
                   _GetStringReverse
                               _itoa
 ---------------------------------------------------------------------------------
 (3) _itoa                                                 7     3      4    2191
                                             15 BANK0      7     3      4
                               _utoa
 ---------------------------------------------------------------------------------
 (4) _utoa                                                 9     5      4    1771
                                              9 COMMON     1     1      0
                                              7 BANK0      8     4      4
                            ___lwdiv
                            ___lwmod
 ---------------------------------------------------------------------------------
 (5) ___lwmod                                              6     2      4     287
                                              2 COMMON     6     2      4
 ---------------------------------------------------------------------------------
 (3) ___lwdiv                                              8     4      4     857
                                              8 COMMON     1     1      0
                                              0 BANK0      7     3      4
                             ___wmul (ARG)
 ---------------------------------------------------------------------------------
 (3) _GetStringReverse                                     7     6      1     256
                                              2 COMMON     7     6      1
 ---------------------------------------------------------------------------------
 (3) _Display_put                                          6     4      2     330
                                              2 COMMON     6     4      2
 ---------------------------------------------------------------------------------
 (1) _SYSTEM_Initialize                                    0     0      0       0
                     _ADC_Initialize
              _OSCILLATOR_Initialize
             _PIN_MANAGER_Initialize
                    _TMR0_Initialize
                    _TMR1_Initialize
 ---------------------------------------------------------------------------------
 (2) _TMR1_Initialize                                      0     0      0       0
                    _TMR1_StartTimer
 ---------------------------------------------------------------------------------
 (3) _TMR1_StartTimer                                      0     0      0       0
 ---------------------------------------------------------------------------------
 (2) _TMR0_Initialize                                      1     1      0       0
                                              2 COMMON     1     1      0
 ---------------------------------------------------------------------------------
 (2) _PIN_MANAGER_Initialize                               0     0      0       0
 ---------------------------------------------------------------------------------
 (2) _OSCILLATOR_Initialize                                0     0      0       0
 ---------------------------------------------------------------------------------
 (2) _ADC_Initialize                                       0     0      0       0
 ---------------------------------------------------------------------------------
 Estimated maximum stack depth 5
 ---------------------------------------------------------------------------------
 (Depth) Function   	        Calls       Base Space   Used Autos Params    Refs
 ---------------------------------------------------------------------------------
 (6) _INTERRUPT_InterruptManager                           2     2      0       0
                                              0 COMMON     2     2      0
                           _TMR0_ISR
                           _TMR1_ISR
 ---------------------------------------------------------------------------------
 (7) _TMR1_ISR                                             0     0      0       0
                      _TMR1_CallBack
 ---------------------------------------------------------------------------------
 (8) _TMR1_CallBack                                        0     0      0       0
 ---------------------------------------------------------------------------------
 (7) _TMR0_ISR                                             0     0      0       0
                      _TMR0_CallBack
 ---------------------------------------------------------------------------------
 (8) _TMR0_CallBack                                        0     0      0       0
 ---------------------------------------------------------------------------------
 Estimated maximum stack depth 8
 ---------------------------------------------------------------------------------

 Call Graph Graphs:

 _main (ROOT)
   _SYSTEM_Initialize
     _ADC_Initialize
     _OSCILLATOR_Initialize
     _PIN_MANAGER_Initialize
     _TMR0_Initialize
     _TMR1_Initialize
       _TMR1_StartTimer
   _WaterLevelDisplay_StateMachine
     _Display_value
       _Display_put
       _GetStringReverse
       _itoa
         _utoa
           ___lwdiv
             ___wmul (ARG)
           ___lwmod
     _WaterLevel_Lookup
       _ReadWaterLevel
         _ADC_GetConversion
         ___lwdiv
           ___wmul (ARG)
         ___wmul
       ___lwdiv
         ___wmul (ARG)

 _INTERRUPT_InterruptManager (ROOT)
   _TMR0_ISR
     _TMR0_CallBack
   _TMR1_ISR
     _TMR1_CallBack

 Address spaces:
Name               Size   Autos  Total    Cost      Usage
BIGRAM              70      0       0       0        0.0%
NULL                 0      0       0       0        0.0%
CODE                 0      0       0       0        0.0%
BITCOMMON            E      0       0       1        0.0%
BITSFR0              0      0       0       1        0.0%
SFR0                 0      0       0       1        0.0%
COMMON               E      A       C       2       85.7%
BITSFR1              0      0       0       2        0.0%
SFR1                 0      0       0       2        0.0%
BITSFR2              0      0       0       3        0.0%
SFR2                 0      0       0       3        0.0%
STACK                0      0       0       3        0.0%
BITSFR3              0      0       0       4        0.0%
SFR3                 0      0       0       4        0.0%
ABS                  0      0      4B       4        0.0%
BITBANK0            50      0       0       5        0.0%
BITSFR4              0      0       0       5        0.0%
SFR4                 0      0       0       5        0.0%
BANK0               50     2B      3F       6       78.8%
BITSFR5              0      0       0       6        0.0%
SFR5                 0      0       0       6        0.0%
BITBANK1            20      0       0       7        0.0%
BITSFR6              0      0       0       7        0.0%
SFR6                 0      0       0       7        0.0%
BANK1               20      0       0       8        0.0%
BITSFR7              0      0       0       8        0.0%
SFR7                 0      0       0       8        0.0%
BITSFR8              0      0       0       9        0.0%
SFR8                 0      0       0       9        0.0%
DATA                 0      0      4B       9        0.0%
BITSFR9              0      0       0      10        0.0%
SFR9                 0      0       0      10        0.0%
BITSFR10             0      0       0      11        0.0%
SFR10                0      0       0      11        0.0%
BITSFR11             0      0       0      12        0.0%
SFR11                0      0       0      12        0.0%
BITSFR12             0      0       0      13        0.0%
SFR12                0      0       0      13        0.0%
BITSFR13             0      0       0      14        0.0%
SFR13                0      0       0      14        0.0%
BITSFR14             0      0       0      15        0.0%
SFR14                0      0       0      15        0.0%
BITSFR15             0      0       0      16        0.0%
SFR15                0      0       0      16        0.0%
BITSFR16             0      0       0      17        0.0%
SFR16                0      0       0      17        0.0%
BITSFR17             0      0       0      18        0.0%
SFR17                0      0       0      18        0.0%
BITSFR18             0      0       0      19        0.0%
SFR18                0      0       0      19        0.0%
BITSFR19             0      0       0      20        0.0%
SFR19                0      0       0      20        0.0%
BITSFR20             0      0       0      21        0.0%
SFR20                0      0       0      21        0.0%
BITSFR21             0      0       0      22        0.0%
SFR21                0      0       0      22        0.0%
BITSFR22             0      0       0      23        0.0%
SFR22                0      0       0      23        0.0%
BITSFR23             0      0       0      24        0.0%
SFR23                0      0       0      24        0.0%
BITSFR24             0      0       0      25        0.0%
SFR24                0      0       0      25        0.0%
BITSFR25             0      0       0      26        0.0%
SFR25                0      0       0      26        0.0%
BITSFR26             0      0       0      27        0.0%
SFR26                0      0       0      27        0.0%
BITSFR27             0      0       0      28        0.0%
SFR27                0      0       0      28        0.0%
BITSFR28             0      0       0      29        0.0%
SFR28                0      0       0      29        0.0%
BITSFR29             0      0       0      30        0.0%
SFR29                0      0       0      30        0.0%
BITSFR30             0      0       0      31        0.0%
SFR30                0      0       0      31        0.0%
BITSFR31             0      0       0      32        0.0%
SFR31                0      0       0      32        0.0%


Microchip Technology PIC Macro Assembler V1.35 build -356382666 
Symbol Table                                                                                   Thu Dec 10 09:26:51 2015

                          ??_Display_put 0074                               __CFG_CP$ON 0000  
                        ??_Display_value 0038                                       l27 0224  
                    ___wmul@multiplicand 0074                          _timer0ReloadVal 005E  
                                    l131 0478                                      l256 02D8  
                                    l284 0452                                      l551 026E  
                                    _RC3 0073                                      u605 0453  
                                    u535 03DA                                      u615 0458  
                                    u720 03C7                                      u714 03BE  
                                    u715 03BD                                      u555 03E9  
                                    u565 03F0                                      u915 037D  
                                    u685 0360                                      u925 0387  
                                    u935 038F                                      u895 0373  
                                    u995 02F2                          _timer1ReloadVal 007A  
               __end_of_WaterLevelLookup 01B9                                      _dot 005D  
                           __CFG_BORV$LO 0000                                      wreg 0009  
                           __CFG_LVP$OFF 0000                                     l1210 0334  
                                   l1122 03EF                                     l1212 0343  
                                   l1220 0357                                     l1116 03D7  
                                   l1230 03A5                                     l1118 03E3  
                                   l1126 03F8                                     l1232 03A7  
                                   l1400 037C                                     l1144 044C  
                                   l1410 0397                                     l1246 03C9  
                                   l1406 038E                                     l1416 022E  
                                   l1426 024A                                     l1524 0296  
                                   l1516 0285                                     l1454 043F  
                                   l1534 02BD                                     l1542 02CC  
                                   l1550 04DD                                     l1538 02C7  
                                   l1492 0204                                     l1398 0370  
                                   l1496 0216                                     u1000 01D4  
                                   u1010 01E2                                     _LATA 010C  
                                   u1087 0473                                     _LATC 010E  
                                   _TMR0 0015                                     _WPUA 020C  
                           __CFG_WRT$OFF 0000                                     _main 04DA  
                                   _itoa 0427                                     fsr0h 0005  
                                   fsr1h 0007                                     fsr0l 0004  
                                   indf0 0000                                     indf1 0001  
                                   fsr1l 0006                                     btemp 007E  
                                   _utoa 0228                            __CFG_BOREN$ON 0000  
                                   ltemp 007E                                     start 001F  
                                   ttemp 007E                  __size_of_ReadWaterLevel 0050  
                                   wtemp 007E                 WaterLevel_Lookup@zeroSet 002F  
                __end_of_TMR0_Initialize 04B7           __size_of_OSCILLATOR_Initialize 0005  
          __end_of_OSCILLATOR_Initialize 04E4                        GetStringReverse@i 0075  
                                  ?_main 0070                                    ?_itoa 002F  
                    __end_of_Display_put 03D1                            __CFG_WDTE$OFF 0000  
                        _TMR1_StartTimer 04E4                                    ?_utoa 0027  
                                  _T1CON 0018                                    _LATC4 0874  
                                  _LATC5 0875                          __end_of___lwdiv 039C  
                                  i1l205 0016                                    i1l209 001A  
                        __end_of___lwmod 03FD                                    _TMR1H 0017  
                                  _TMR1L 0016                                    _TRISA 008C  
                                  _TRISC 008E                         __end_of_TMR0_ISR 04DA  
                       __end_of_TMR1_ISR 04C8                       _ReadWaterLevel$879 002B  
                __end_of_TMR1_Initialize 04A8                                    ltemp0 007E  
                                  ltemp1 0082                                    ltemp2 0086  
                                  ltemp3 0080                                    ttemp0 007E  
                                  ttemp1 0081                                    ttemp2 0084  
                                  ttemp3 0087                                    ttemp4 007F  
                                  utoa@c 002D                                    utoa@v 002B  
                                  status 0003                                    wtemp0 007E  
                                  wtemp1 0080                                    wtemp2 0082  
                                  wtemp3 0084                                    wtemp4 0086  
                                  wtemp5 0088                                    wtemp6 007F  
                         __CFG_MCLRE$OFF 0000                          __initialization 0020  
                           __end_of_main 04DF                             __end_of_itoa 044A  
                           __end_of_utoa 0284                           __CFG_LPBOR$OFF 0000  
            ?_INTERRUPT_InterruptManager 0070                                   ??_main 007A  
                                 ??_itoa 0033                                   ??_utoa 0079  
                                 _ADCON0 009D                                   _ADCON1 009E  
                                 _ADCON2 009F                                   _ADRESH 009C  
                                 _ADRESL 009B                                   _APFCON 011D  
                                 _ANSELA 018C                                   _ANSELC 018E  
                                 _T1GCON 0019                                   _OSCCON 0099  
                         __CFG_PWRTE$OFF 0000                        ?_GetStringReverse 0072  
                     ??_GetStringReverse 0073                              _Display_put 039C  
                __end_of_TMR1_StartTimer 04E7                                   ___wmul 044A  
                         __CFG_STVREN$ON 0000                                ??___lwdiv 0078  
                              ??___lwmod 0076                         ?_TMR0_Initialize 0070  
                                 _wlData 0057                                   itoa@cp 0034  
               ADC_GetConversion@channel 0075                    __end_of_TMR0_CallBack 04E9  
                       Display_put@digit 0076                    __end_of_TMR1_CallBack 04E8  
                       ?_TMR1_Initialize 0070                        _SYSTEM_Initialize 04CE  
                __end_of__initialization 0026        WaterLevel_Lookup@waterLevelLookup 0035  
                     ?_SYSTEM_Initialize 0070                           _ReadWaterLevel 02D9  
                         __pcstackCOMMON 0070                      ??_SYSTEM_Initialize 0073  
                              ?_TMR0_ISR 0070                                ?_TMR1_ISR 0070  
       ??_WaterLevelDisplay_StateMachine 0049          ?_WaterLevelDisplay_StateMachine 0070  
                         _OPTION_REGbits 0095                __end_of_SYSTEM_Initialize 04D4  
                             __pbssBANK0 004B                   __end_of_ReadWaterLevel 0329  
                             __pnvCOMMON 007A                               __pmaintext 04DA  
                                ?___wmul 0072                         ?_TMR1_StartTimer 0070  
                             ??_TMR0_ISR 0070                               ??_TMR1_ISR 0070  
                             __pintentry 0004                      GetStringReverse@str 0074  
                  __end_of_Display_value 0228                  __size_of_ADC_Initialize 0009  
                                _OSCSTAT 009A                          ?_ReadWaterLevel 0027  
                        __size_of___wmul 001B                                  ___lwdiv 0367  
                                ___lwmod 03D1                                  __ptext1 0284  
                                __ptext2 03FD                                  __ptext3 02D9  
                                __ptext4 044A                                  __ptext5 0465  
                                __ptext6 01C4                                  __ptext7 0427  
                                __ptext8 0228                                  __ptext9 03D1  
                              _T1CONbits 0018                    _OSCILLATOR_Initialize 04DF  
               ??_PIN_MANAGER_Initialize 0072               __size_of_SYSTEM_Initialize 0006  
                                clrloop0 04C9               WaterLevel_Lookup@stepLitre 0031  
                   end_of_initialization 0026                                  itoa@buf 0035  
                                itoa@val 002F                             ?_Display_put 0072  
                           __pstringtext 0029                                  utoa@buf 002E  
                                utoa@val 0027                __size_of_GetStringReverse 003E  
                       __CFG_FOSC$INTOSC 0000                           __end_of___wmul 0465  
     __end_ofDisplay_put@display_segment 01C4               Display_put@display_segment 01B9  
                      __size_of_TMR0_ISR 0006                        __size_of_TMR1_ISR 0008  
                         _ADC_Initialize 04B7                   ?_OSCILLATOR_Initialize 0070  
                    start_initialization 0020                 __size_of_TMR0_Initialize 000F  
        __size_of_PIN_MANAGER_Initialize 0018                        _WaterLevel_Lookup 03FD  
 __end_of_WaterLevelDisplay_StateMachine 02D9  __size_of_WaterLevelDisplay_StateMachine 0055  
         _WaterLevelDisplay_StateMachine 0284                       ?_WaterLevel_Lookup 002F  
               __size_of_TMR1_Initialize 0011                                 ??___wmul 0076  
                 __size_of_TMR0_CallBack 0001                   __end_of_ADC_Initialize 04C0  
                    ??_WaterLevel_Lookup 0032                   __size_of_TMR1_CallBack 0001  
        WaterLevel_Lookup@waterLevelRead 0036                    Display_value@myBuffer 003A  
                              ___latbits 0000                            __pcstackBANK0 0020  
                       ??_ReadWaterLevel 0029                __end_of_WaterLevel_Lookup 0427  
                              __pnvBANK0 005E                         ___lwdiv@dividend 0022  
                 _PIN_MANAGER_Initialize 047F                                 ?___lwdiv 0020  
                               ?___lwmod 0072                          ?_ADC_Initialize 0070  
                   __size_of_Display_put 0035             ??_INTERRUPT_InterruptManager 0070  
                   GetStringReverse@buff 0072                     GetStringReverse@rptr 0077  
                   GetStringReverse@sptr 0078                         _GetStringReverse 0329  
               __size_of_TMR1_StartTimer 0003                         ___lwdiv@quotient 0025  
                          _TMR0_CallBack 04E8                            _TMR1_CallBack 04E7  
                      ??_TMR0_Initialize 0072                   __size_of_Display_value 0064  
                         ___wmul@product 0076                                clear_ram0 04C8  
                               _PIE1bits 0091      __size_of_INTERRUPT_InterruptManager 001B  
                               _PIR1bits 0011                                 _TMR0_ISR 04D4  
                               _TMR1_ISR 04C0                        ??_TMR1_Initialize 0072  
                             _ADCON0bits 009D                        ___wmul@multiplier 0072  
                         ?_TMR0_CallBack 0070               __size_of_WaterLevel_Lookup 002A  
                         ?_TMR1_CallBack 0070                         _WaterLevelLookup 0029  
                      _ADC_GetConversion 0465                  ??_OSCILLATOR_Initialize 0072  
                         Display_value@i 0048                       ?_ADC_GetConversion 0072  
                         Display_put@dig 0072                         __size_of___lwdiv 0035  
                       __size_of___lwmod 002C                     Display_value@numChar 0040  
                          _Display_value 01C4                      ??_ADC_GetConversion 0074  
                        ___lwdiv@divisor 0020                          ___lwdiv@counter 0024  
                               __ptext10 0367                                 __ptext11 0329  
                               __ptext12 039C                                 __ptext21 04C0  
                               __ptext13 04CE                               _T1GCONbits 0019  
                               __ptext22 04E7                                 __ptext14 0497  
                               __ptext23 04D4                                 __ptext15 04E4  
                               __ptext24 04E8                                 __ptext16 04A8  
                               __ptext17 047F                                 __ptext18 04DF  
                               __ptext19 04B7                        ??_TMR1_StartTimer 0072  
                          __size_of_main 0005                            __size_of_itoa 0023  
                          __size_of_utoa 005C                __end_of_ADC_GetConversion 047F  
                               int$flags 007E       __end_of_INTERRUPT_InterruptManager 001F  
             _INTERRUPT_InterruptManager 0004                           ?_Display_value 0036  
                 ReadWaterLevel@adcValue 002D                               _INTCONbits 000B  
                        ??_TMR0_CallBack 0070                                 itoa@base 0031  
                        ??_TMR1_CallBack 0070                      Display_value@number 0046  
                               intlevel1 0000                         ___lwmod@dividend 0074  
                ?_PIN_MANAGER_Initialize 0070                        __CFG_CLKOUTEN$OFF 0000  
               __end_of_GetStringReverse 0367                         ??_ADC_Initialize 0072  
                     Display_value@F3236 004B                       Display_value@F3238 0051  
                           Display_put@i 0077                                 utoa@base 0029  
                     Display_value@value 0036                               _OPTION_REG 0095  
                        ___lwmod@divisor 0072                          _TMR0_Initialize 04A8  
                        ___lwmod@counter 0077           __end_of_PIN_MANAGER_Initialize 0497  
             __size_of_ADC_GetConversion 001A                          _TMR1_Initialize 0497  
