Microchip MPLAB XC8 Compiler V1.35 ()

Linker command line:

--edf=C:\Program Files (x86)\Microchip\xc8\v1.35\dat\en_msgs.txt -cs \
  -h+dist/default/production\LIQUID_LEVEL_DISPLAY.X.production.sym \
  --cmf=dist/default/production\LIQUID_LEVEL_DISPLAY.X.production.cmf -z \
  -Q16F1503 -oC:\Users\niranjan\AppData\Local\Temp\s678.2 \
  -Mdist/default/production/LIQUID_LEVEL_DISPLAY.X.production.map -E1 \
  -ver=XC8 -ASTACK=02037h-0206fh -pstack=STACK -ACODE=00h-07FFh \
  -ASTRCODE=00h-07FFh -ASTRING=00h-0FFhx8 -ACONST=00h-0FFhx8 \
  -AENTRY=00h-0FFhx8 -ACOMMON=070h-07Fh -ABANK0=020h-06Fh -ABANK1=0A0h-0BFh \
  -ABIGRAM=02000h-0206Fh -ARAM=020h-06Fh,0A0h-0BFh \
  -AABS1=020h-07Fh,0A0h-0BFh -ASFR0=00h-01Fh -ASFR1=080h-09Fh \
  -ASFR2=0100h-016Fh -ASFR3=0180h-01EFh -ASFR4=0200h-026Fh \
  -ASFR5=0280h-02EFh -ASFR6=0300h-036Fh -ASFR7=0380h-03EFh \
  -ASFR8=0400h-046Fh -ASFR9=0480h-04EFh -ASFR10=0500h-056Fh \
  -ASFR11=0580h-05EFh -ASFR12=0600h-066Fh -ASFR13=0680h-06EFh \
  -ASFR14=0700h-076Fh -ASFR15=0780h-07EFh -ASFR16=0800h-086Fh \
  -ASFR17=0880h-08EFh -ASFR18=0900h-096Fh -ASFR19=0980h-09EFh \
  -ASFR20=0A00h-0A6Fh -ASFR21=0A80h-0AEFh -ASFR22=0B00h-0B6Fh \
  -ASFR23=0B80h-0BEFh -ASFR24=0C00h-0C6Fh -ASFR25=0C80h-0CEFh \
  -ASFR26=0D00h-0D6Fh -ASFR27=0D80h-0DEFh -ASFR28=0E00h-0E6Fh \
  -ASFR29=0E80h-0EEFh -ASFR30=0F00h-0F6Fh -ASFR31=0F80h-0FEFh \
  -preset_vec=00h,intentry,init,end_init -ppowerup=CODE -pcinit=CODE \
  -pfunctab=CODE -ACONFIG=08007h-08008h -pconfig=CONFIG -DCONFIG=2 \
  -AIDLOC=08000h-08003h -pidloc=IDLOC -DIDLOC=2 -DCODE=2 -DSTRCODE=2 \
  -DSTRING=2 -DCONST=2 -DENTRY=2 -k \
  C:\Users\niranjan\AppData\Local\Temp\s678.obj \
  dist/default/production\LIQUID_LEVEL_DISPLAY.X.production.obj 

Object code version is 3.11

Machine type is 16F1503



                Name                               Link     Load   Length Selector   Space Scale
C:\Users\niranjan\AppData\Local\Temp\s678.obj
                end_init                              1        1        1        0       0
                reset_vec                             0        0        1        0       0
                config                             8007     8007        2    1000E       0
dist/default/production\LIQUID_LEVEL_DISPLAY.X.production.obj
                cinit                               7F8      7F8        8      FF0       0
                text16                              390      390        9      720       0
                text15                              385      385        5      70A       0
                text14                              399      399       18      732       0
                text13                              381      381        4      702       0
                text12                              493      493       35      926       0
                text11                              4C8      4C8       3E      990       0
                text10                              45F      45F       34      8BE       0
                text9                               433      433       2C      866       0
                text8                               59D      59D       5C      B3A       0
                text7                               3E6      3E6       23      7CC       0
                text6                               5F9      5F9       64      BF2       0
                text5                               3B1      3B1       1A      762       0
                text4                               3CB      3CB       1B      796       0
                text3                               54E      54E       4F      A9C       0
                text2                               409      409       2A      812       0
                text1                               506      506       48      A0C       0
                maintext                            37E      37E        3      6FC       0
                cstackBANK0                          20       20       25       20       1
                cstackCOMMON                         70       70        E       70       1
                clrtext                             38A      38A        6      714       0
                bssBANK0                             45       45       12       20       1
                stringtext                          65D      65D      19B      CBA       0

TOTAL           Name                               Link     Load   Length     Space
        CLASS   STACK          

        CLASS   CODE           
                end_init                              1        1        1         0
                cinit                               7F8      7F8        8         0
                reset_vec                             0        0        1         0
                text16                              390      390        9         0
                text15                              385      385        5         0
                text14                              399      399       18         0
                text13                              381      381        4         0
                text12                              493      493       35         0
                text11                              4C8      4C8       3E         0
                text10                              45F      45F       34         0
                text9                               433      433       2C         0
                text8                               59D      59D       5C         0
                text7                               3E6      3E6       23         0
                text6                               5F9      5F9       64         0
                text5                               3B1      3B1       1A         0
                text4                               3CB      3CB       1B         0
                text3                               54E      54E       4F         0
                text2                               409      409       2A         0
                text1                               506      506       48         0
                maintext                            37E      37E        3         0
                clrtext                             38A      38A        6         0

        CLASS   STRCODE        
                stringtext                          65D      65D      19B         0

        CLASS   STRING         

        CLASS   CONST          

        CLASS   ENTRY          

        CLASS   COMMON         
                cstackCOMMON                         70       70        E         1

        CLASS   BANK0          
                cstackBANK0                          20       20       25         1
                bssBANK0                             45       45       12         1

        CLASS   BANK1          

        CLASS   BIGRAM         

        CLASS   RAM            

        CLASS   ABS1           
                abs_s1                               7E       7E        2         1

        CLASS   SFR0           

        CLASS   SFR1           

        CLASS   SFR2           

        CLASS   SFR3           

        CLASS   SFR4           

        CLASS   SFR5           

        CLASS   SFR6           

        CLASS   SFR7           

        CLASS   SFR8           

        CLASS   SFR9           

        CLASS   SFR10          

        CLASS   SFR11          

        CLASS   SFR12          

        CLASS   SFR13          

        CLASS   SFR14          

        CLASS   SFR15          

        CLASS   SFR16          

        CLASS   SFR17          

        CLASS   SFR18          

        CLASS   SFR19          

        CLASS   SFR20          

        CLASS   SFR21          

        CLASS   SFR22          

        CLASS   SFR23          

        CLASS   SFR24          

        CLASS   SFR25          

        CLASS   SFR26          

        CLASS   SFR27          

        CLASS   SFR28          

        CLASS   SFR29          

        CLASS   SFR30          

        CLASS   SFR31          

        CLASS   CONFIG         
                config                             8007     8007        2         0

        CLASS   IDLOC          

        CLASS   BANK31         

        CLASS   BANK30         

        CLASS   BANK29         

        CLASS   BANK28         

        CLASS   BANK27         

        CLASS   BANK26         

        CLASS   BANK25         

        CLASS   BANK24         

        CLASS   BANK23         

        CLASS   BANK22         

        CLASS   BANK21         

        CLASS   BANK20         

        CLASS   BANK19         

        CLASS   BANK18         

        CLASS   BANK17         

        CLASS   BANK16         

        CLASS   BANK15         

        CLASS   BANK14         

        CLASS   BANK13         

        CLASS   BANK12         

        CLASS   BANK11         

        CLASS   BANK10         

        CLASS   BANK9          

        CLASS   BANK8          

        CLASS   BANK7          

        CLASS   BANK6          

        CLASS   BANK5          

        CLASS   BANK4          

        CLASS   BANK3          

        CLASS   BANK2          

        CLASS   EEDATA         



SEGMENTS        Name                           Load    Length   Top    Selector   Space  Class     Delta

                reset_vec                      000000  000002  000002         0       0  CODE        2
                cstackBANK0                    000020  000037  000057        20       1  BANK0       1
                cstackCOMMON                   000070  00000E  00007E        70       1  COMMON      1
                maintext                       00037E  000003  000381       6FC       0  CODE        2
                text13                         000381  000004  000385       702       0  CODE        2
                text15                         000385  000005  00038A       70A       0  CODE        2
                clrtext                        00038A  000006  000390       714       0  CODE        2
                text16                         000390  000009  000399       720       0  CODE        2
                text14                         000399  000018  0003B1       732       0  CODE        2
                text5                          0003B1  00001A  0003CB       762       0  CODE        2
                text4                          0003CB  00001B  0003E6       796       0  CODE        2
                text7                          0003E6  000023  000409       7CC       0  CODE        2
                text2                          000409  00002A  000433       812       0  CODE        2
                text9                          000433  00002C  00045F       866       0  CODE        2
                text10                         00045F  000034  000493       8BE       0  CODE        2
                text12                         000493  000035  0004C8       926       0  CODE        2
                text11                         0004C8  00003E  000506       990       0  CODE        2
                text1                          000506  000048  00054E       A0C       0  CODE        2
                text3                          00054E  00004F  00059D       A9C       0  CODE        2
                text8                          00059D  00005C  0005F9       B3A       0  CODE        2
                text6                          0005F9  000064  00065D       BF2       0  CODE        2
                stringtext                     00065D  00019B  0007F8       CBA       0  STRCODE     2
                cinit                          0007F8  000008  000800       FF0       0  CODE        2
                config                         008007  000002  008009     1000E       0  CONFIG      2


UNUSED ADDRESS RANGES

        Name                Unused          Largest block    Delta
        BANK0            00057-0006F              19           1
        BANK1            000A0-000BF              20           1
        BIGRAM           02000-0206F              70           1
        CODE             00002-0037D             37C           2
        CONST            00002-0037D             100           2
        ENTRY            00002-0037D             100           2
        IDLOC            08000-08003               4           2
        RAM              00057-0006F              19           1
                         000A0-000BF              20
        SFR0             00000-0001F              20           1
        SFR1             00080-0009F              20           1
        SFR10            00500-0056F              70           1
        SFR11            00580-005EF              70           1
        SFR12            00600-0066F              70           1
        SFR13            00680-006EF              70           1
        SFR14            00700-0076F              70           1
        SFR15            00780-007EF              70           1
        SFR16            00800-0086F              70           1
        SFR17            00880-008EF              70           1
        SFR18            00900-0096F              70           1
        SFR19            00980-009EF              70           1
        SFR2             00100-0016F              70           1
        SFR20            00A00-00A6F              70           1
        SFR21            00A80-00AEF              70           1
        SFR22            00B00-00B6F              70           1
        SFR23            00B80-00BEF              70           1
        SFR24            00C00-00C6F              70           1
        SFR25            00C80-00CEF              70           1
        SFR26            00D00-00D6F              70           1
        SFR27            00D80-00DEF              70           1
        SFR28            00E00-00E6F              70           1
        SFR29            00E80-00EEF              70           1
        SFR3             00180-001EF              70           1
        SFR30            00F00-00F6F              70           1
        SFR31            00F80-00FEF              70           1
        SFR4             00200-0026F              70           1
        SFR5             00280-002EF              70           1
        SFR6             00300-0036F              70           1
        SFR7             00380-003EF              70           1
        SFR8             00400-0046F              70           1
        SFR9             00480-004EF              70           1
        STACK            02037-0206F              39           1
        STRCODE          00002-0037D             37C           2
        STRING           00002-0037D             100           2

                                  Symbol Table

?_ADC_GetConversion                      cstackCOMMON 00070
?_ReadWaterLevel                         cstackBANK0  00020
?___lwdiv                                cstackCOMMON 00076
?___lwmod                                cstackCOMMON 00070
?___wmul                                 cstackCOMMON 00070
ADC_GetConversion@channel                cstackCOMMON 00073
Display_put@dig                          cstackCOMMON 00070
Display_put@digit                        cstackCOMMON 00074
Display_put@display_segment              stringtext   007ED
Display_put@i                            cstackCOMMON 00075
Display_value@F3200                      bssBANK0     00045
Display_value@F3202                      bssBANK0     0004B
Display_value@i                          cstackBANK0  00042
Display_value@myBuffer                   cstackBANK0  00034
Display_value@numChar                    cstackBANK0  0003A
Display_value@number                     cstackBANK0  00040
Display_value@value                      cstackBANK0  00030
GetStringReverse@buff                    cstackCOMMON 00070
GetStringReverse@i                       cstackCOMMON 00073
GetStringReverse@rptr                    cstackCOMMON 00075
GetStringReverse@sptr                    cstackCOMMON 00076
GetStringReverse@str                     cstackCOMMON 00072
ReadWaterLevel@adcValue                  cstackBANK0  00026
WaterLevel_Lookup@stepLitre              cstackBANK0  0002A
WaterLevel_Lookup@waterLevelLookup       cstackBANK0  0002E
WaterLevel_Lookup@waterLevelRead         cstackBANK0  0002F
WaterLevel_Lookup@zeroSet                cstackBANK0  00028
_ADCON0                                  (abs)        0009D
_ADCON0bits                              (abs)        0009D
_ADCON1                                  (abs)        0009E
_ADCON2                                  (abs)        0009F
_ADC_GetConversion                       text5        003B1
_ADC_Initialize                          text16       00390
_ADRESH                                  (abs)        0009C
_ADRESL                                  (abs)        0009B
_ANSELA                                  (abs)        0018C
_ANSELC                                  (abs)        0018E
_APFCON                                  (abs)        0011D
_Display_put                             text12       00493
_Display_value                           text6        005F9
_GetStringReverse                        text11       004C8
_LATA                                    (abs)        0010C
_LATC                                    (abs)        0010E
_LATC4                                   (abs)        00874
_LATC5                                   (abs)        00875
_OPTION_REGbits                          (abs)        00095
_OSCCON                                  (abs)        00099
_OSCILLATOR_Initialize                   text15       00385
_OSCSTAT                                 (abs)        0009A
_PIN_MANAGER_Initialize                  text14       00399
_RC3                                     (abs)        00073
_ReadWaterLevel                          text3        0054E
_ReadWaterLevel$557                      cstackBANK0  00024
_SYSTEM_Initialize                       text13       00381
_TRISA                                   (abs)        0008C
_TRISC                                   (abs)        0008E
_WPUA                                    (abs)        0020C
_WaterLevelDisplay_StateMachine          text1        00506
_WaterLevelLookup                        stringtext   0065D
_WaterLevel_Lookup                       text2        00409
__CFG_BOREN$ON                           (abs)        00000
__CFG_BORV$LO                            (abs)        00000
__CFG_CLKOUTEN$OFF                       (abs)        00000
__CFG_CP$OFF                             (abs)        00000
__CFG_FOSC$INTOSC                        (abs)        00000
__CFG_LPBOR$OFF                          (abs)        00000
__CFG_LVP$OFF                            (abs)        00000
__CFG_MCLRE$OFF                          (abs)        00000
__CFG_PWRTE$OFF                          (abs)        00000
__CFG_STVREN$ON                          (abs)        00000
__CFG_WDTE$OFF                           (abs)        00000
__CFG_WRT$OFF                            (abs)        00000
__Habs1                                  abs1         00000
__Hbank0                                 bank0        00000
__Hbank1                                 bank1        00000
__Hbank10                                bank10       00000
__Hbank11                                bank11       00000
__Hbank12                                bank12       00000
__Hbank13                                bank13       00000
__Hbank14                                bank14       00000
__Hbank15                                bank15       00000
__Hbank16                                bank16       00000
__Hbank17                                bank17       00000
__Hbank18                                bank18       00000
__Hbank19                                bank19       00000
__Hbank2                                 bank2        00000
__Hbank20                                bank20       00000
__Hbank21                                bank21       00000
__Hbank22                                bank22       00000
__Hbank23                                bank23       00000
__Hbank24                                bank24       00000
__Hbank25                                bank25       00000
__Hbank26                                bank26       00000
__Hbank27                                bank27       00000
__Hbank28                                bank28       00000
__Hbank29                                bank29       00000
__Hbank3                                 bank3        00000
__Hbank30                                bank30       00000
__Hbank31                                bank31       00000
__Hbank4                                 bank4        00000
__Hbank5                                 bank5        00000
__Hbank6                                 bank6        00000
__Hbank7                                 bank7        00000
__Hbank8                                 bank8        00000
__Hbank9                                 bank9        00000
__Hbigram                                bigram       00000
__HbssBANK0                              bssBANK0     00000
__Hcinit                                 cinit        00800
__Hclrtext                               clrtext      00000
__Hcode                                  code         00000
__Hcommon                                common       00000
__Hconfig                                config       08009
__HcstackBANK0                           cstackBANK0  00000
__HcstackCOMMON                          cstackCOMMON 00000
__Heeprom_data                           eeprom_data  00000
__Hend_init                              end_init     00002
__Hfunctab                               functab      00000
__Hidloc                                 idloc        00000
__Hinit                                  init         00001
__Hintentry                              intentry     00001
__Hmaintext                              maintext     00000
__Hpowerup                               powerup      00000
__Hram                                   ram          00000
__Hreset_vec                             reset_vec    00001
__Hsfr0                                  sfr0         00000
__Hsfr1                                  sfr1         00000
__Hsfr10                                 sfr10        00000
__Hsfr11                                 sfr11        00000
__Hsfr12                                 sfr12        00000
__Hsfr13                                 sfr13        00000
__Hsfr14                                 sfr14        00000
__Hsfr15                                 sfr15        00000
__Hsfr16                                 sfr16        00000
__Hsfr17                                 sfr17        00000
__Hsfr18                                 sfr18        00000
__Hsfr19                                 sfr19        00000
__Hsfr2                                  sfr2         00000
__Hsfr20                                 sfr20        00000
__Hsfr21                                 sfr21        00000
__Hsfr22                                 sfr22        00000
__Hsfr23                                 sfr23        00000
__Hsfr24                                 sfr24        00000
__Hsfr25                                 sfr25        00000
__Hsfr26                                 sfr26        00000
__Hsfr27                                 sfr27        00000
__Hsfr28                                 sfr28        00000
__Hsfr29                                 sfr29        00000
__Hsfr3                                  sfr3         00000
__Hsfr30                                 sfr30        00000
__Hsfr31                                 sfr31        00000
__Hsfr4                                  sfr4         00000
__Hsfr5                                  sfr5         00000
__Hsfr6                                  sfr6         00000
__Hsfr7                                  sfr7         00000
__Hsfr8                                  sfr8         00000
__Hsfr9                                  sfr9         00000
__Hspace_0                               (abs)        08009
__Hspace_1                               (abs)        0007E
__Hspace_2                               (abs)        00000
__Hspace_3                               (abs)        00000
__Hstack                                 stack        00000
__Hstrings                               strings      00000
__Hstringtext                            stringtext   00000
__Htext                                  text         00000
__Labs1                                  abs1         00000
__Lbank0                                 bank0        00000
__Lbank1                                 bank1        00000
__Lbank10                                bank10       00000
__Lbank11                                bank11       00000
__Lbank12                                bank12       00000
__Lbank13                                bank13       00000
__Lbank14                                bank14       00000
__Lbank15                                bank15       00000
__Lbank16                                bank16       00000
__Lbank17                                bank17       00000
__Lbank18                                bank18       00000
__Lbank19                                bank19       00000
__Lbank2                                 bank2        00000
__Lbank20                                bank20       00000
__Lbank21                                bank21       00000
__Lbank22                                bank22       00000
__Lbank23                                bank23       00000
__Lbank24                                bank24       00000
__Lbank25                                bank25       00000
__Lbank26                                bank26       00000
__Lbank27                                bank27       00000
__Lbank28                                bank28       00000
__Lbank29                                bank29       00000
__Lbank3                                 bank3        00000
__Lbank30                                bank30       00000
__Lbank31                                bank31       00000
__Lbank4                                 bank4        00000
__Lbank5                                 bank5        00000
__Lbank6                                 bank6        00000
__Lbank7                                 bank7        00000
__Lbank8                                 bank8        00000
__Lbank9                                 bank9        00000
__Lbigram                                bigram       00000
__LbssBANK0                              bssBANK0     00000
__Lcinit                                 cinit        007F8
__Lclrtext                               clrtext      00000
__Lcode                                  code         00000
__Lcommon                                common       00000
__Lconfig                                config       08007
__LcstackBANK0                           cstackBANK0  00000
__LcstackCOMMON                          cstackCOMMON 00000
__Leeprom_data                           eeprom_data  00000
__Lend_init                              end_init     00001
__Lfunctab                               functab      00000
__Lidloc                                 idloc        00000
__Linit                                  init         00001
__Lintentry                              intentry     00001
__Lmaintext                              maintext     00000
__Lpowerup                               powerup      00000
__Lram                                   ram          00000
__Lreset_vec                             reset_vec    00000
__Lsfr0                                  sfr0         00000
__Lsfr1                                  sfr1         00000
__Lsfr10                                 sfr10        00000
__Lsfr11                                 sfr11        00000
__Lsfr12                                 sfr12        00000
__Lsfr13                                 sfr13        00000
__Lsfr14                                 sfr14        00000
__Lsfr15                                 sfr15        00000
__Lsfr16                                 sfr16        00000
__Lsfr17                                 sfr17        00000
__Lsfr18                                 sfr18        00000
__Lsfr19                                 sfr19        00000
__Lsfr2                                  sfr2         00000
__Lsfr20                                 sfr20        00000
__Lsfr21                                 sfr21        00000
__Lsfr22                                 sfr22        00000
__Lsfr23                                 sfr23        00000
__Lsfr24                                 sfr24        00000
__Lsfr25                                 sfr25        00000
__Lsfr26                                 sfr26        00000
__Lsfr27                                 sfr27        00000
__Lsfr28                                 sfr28        00000
__Lsfr29                                 sfr29        00000
__Lsfr3                                  sfr3         00000
__Lsfr30                                 sfr30        00000
__Lsfr31                                 sfr31        00000
__Lsfr4                                  sfr4         00000
__Lsfr5                                  sfr5         00000
__Lsfr6                                  sfr6         00000
__Lsfr7                                  sfr7         00000
__Lsfr8                                  sfr8         00000
__Lsfr9                                  sfr9         00000
__Lspace_0                               (abs)        00000
__Lspace_1                               (abs)        00000
__Lspace_2                               (abs)        00000
__Lspace_3                               (abs)        00000
__Lstack                                 stack        00000
__Lstrings                               strings      00000
__Lstringtext                            stringtext   00000
__Ltext                                  text         00000
__S0                                     (abs)        08009
__S1                                     (abs)        0007E
__S2                                     (abs)        00000
___int_sp                                stack        00000
___latbits                               (abs)        00000
___lwdiv                                 text10       0045F
___lwdiv@counter                         cstackCOMMON 0007D
___lwdiv@dividend                        cstackCOMMON 00078
___lwdiv@divisor                         cstackCOMMON 00076
___lwdiv@quotient                        cstackCOMMON 0007B
___lwmod                                 text9        00433
___lwmod@counter                         cstackCOMMON 00075
___lwmod@dividend                        cstackCOMMON 00072
___lwmod@divisor                         cstackCOMMON 00070
___sp                                    stack        00000
___wmul                                  text4        003CB
___wmul@multiplicand                     cstackCOMMON 00072
___wmul@multiplier                       cstackCOMMON 00070
___wmul@product                          cstackCOMMON 00074
__end_ofDisplay_put@display_segment      stringtext   007F8
__end_of_ADC_GetConversion               text5        003CB
__end_of_ADC_Initialize                  text16       00399
__end_of_Display_put                     text12       004C8
__end_of_Display_value                   text6        0065D
__end_of_GetStringReverse                text11       00506
__end_of_OSCILLATOR_Initialize           text15       0038A
__end_of_PIN_MANAGER_Initialize          text14       003B1
__end_of_ReadWaterLevel                  text3        0059D
__end_of_SYSTEM_Initialize               text13       00385
__end_of_WaterLevelDisplay_StateMachine  text1        0054E
__end_of_WaterLevelLookup                stringtext   007ED
__end_of_WaterLevel_Lookup               text2        00433
__end_of___lwdiv                         text10       00493
__end_of___lwmod                         text9        0045F
__end_of___wmul                          text4        003E6
__end_of__initialization                 cinit        007FE
__end_of_itoa                            text7        00409
__end_of_main                            maintext     00381
__end_of_utoa                            text8        005F9
__initialization                         cinit        007F8
__pbssBANK0                              bssBANK0     00045
__pcstackBANK0                           cstackBANK0  00020
__pcstackCOMMON                          cstackCOMMON 00070
__pmaintext                              maintext     0037E
__pstringtext                            stringtext   0065D
__ptext1                                 text1        00506
__ptext10                                text10       0045F
__ptext11                                text11       004C8
__ptext12                                text12       00493
__ptext13                                text13       00381
__ptext14                                text14       00399
__ptext15                                text15       00385
__ptext16                                text16       00390
__ptext2                                 text2        00409
__ptext3                                 text3        0054E
__ptext4                                 text4        003CB
__ptext5                                 text5        003B1
__ptext6                                 text6        005F9
__ptext7                                 text7        003E6
__ptext8                                 text8        0059D
__ptext9                                 text9        00433
__size_of_ADC_GetConversion              (abs)        00000
__size_of_ADC_Initialize                 (abs)        00000
__size_of_Display_put                    (abs)        00000
__size_of_Display_value                  (abs)        00000
__size_of_GetStringReverse               (abs)        00000
__size_of_OSCILLATOR_Initialize          (abs)        00000
__size_of_PIN_MANAGER_Initialize         (abs)        00000
__size_of_ReadWaterLevel                 (abs)        00000
__size_of_SYSTEM_Initialize              (abs)        00000
__size_of_WaterLevelDisplay_StateMachine (abs)        00000
__size_of_WaterLevel_Lookup              (abs)        00000
__size_of___lwdiv                        (abs)        00000
__size_of___lwmod                        (abs)        00000
__size_of___wmul                         (abs)        00000
__size_of_itoa                           (abs)        00000
__size_of_main                           (abs)        00000
__size_of_utoa                           (abs)        00000
_dot                                     bssBANK0     00056
_itoa                                    text7        003E6
_main                                    maintext     0037E
_utoa                                    text8        0059D
_wlData                                  bssBANK0     00051
btemp                                    (abs)        0007E
clear_ram0                               clrtext      0038A
end_of_initialization                    cinit        007FE
intlevel0                                functab      00000
intlevel1                                functab      00000
intlevel2                                functab      00000
intlevel3                                functab      00000
intlevel4                                functab      00000
intlevel5                                functab      00000
itoa@base                                cstackBANK0  0002B
itoa@buf                                 cstackBANK0  0002F
itoa@cp                                  cstackBANK0  0002E
itoa@val                                 cstackBANK0  00029
ltemp                                    (abs)        0007E
ltemp0                                   (abs)        0007E
ltemp1                                   (abs)        00082
ltemp2                                   (abs)        00086
ltemp3                                   (abs)        00080
reset_vec                                reset_vec    00000
stackhi                                  (abs)        0206F
stacklo                                  (abs)        02037
start                                    init         00001
start_initialization                     cinit        007F8
ttemp                                    (abs)        0007E
ttemp0                                   (abs)        0007E
ttemp1                                   (abs)        00081
ttemp2                                   (abs)        00084
ttemp3                                   (abs)        00087
ttemp4                                   (abs)        0007F
utoa@base                                cstackBANK0  00022
utoa@buf                                 cstackBANK0  00028
utoa@c                                   cstackBANK0  00027
utoa@v                                   cstackBANK0  00025
utoa@val                                 cstackBANK0  00020
wtemp                                    (abs)        0007E
wtemp0                                   (abs)        0007E
wtemp1                                   (abs)        00080
wtemp2                                   (abs)        00082
wtemp3                                   (abs)        00084
wtemp4                                   (abs)        00086
wtemp5                                   (abs)        00088
wtemp6                                   (abs)        0007F


FUNCTION INFORMATION:

 *************** function _main *****************
 Defined at:
		line 52 in file "main.c"
 Parameters:    Size  Location     Type
		None
 Auto vars:     Size  Location     Type
		None
 Return value:  Size  Location     Type
		None               void
 Registers used:
		wreg, fsr0l, fsr0h, fsr1l, fsr1h, status,2, status,0, pclath, cstack
 Tracked objects:
		On entry : 
		On exit  : 
		Unchanged: 
 Data sizes:     COMMON   BANK0   BANK1
      Params:         0       0       0
      Locals:         0       0       0
      Temps:          0       0       0
      Totals:         0       0       0
Total ram usage:        0 bytes
 Hardware stack levels required when called:    5
 This function calls:
		_SYSTEM_Initialize
		_WaterLevelDisplay_StateMachine
 This function is called by:
		Startup code after reset
 This function uses a non-reentrant model


 *************** function _WaterLevelDisplay_StateMachine *****************
 Defined at:
		line 14 in file "water_level_display/water_level_display.c"
 Parameters:    Size  Location     Type
		None
 Auto vars:     Size  Location     Type
		None
 Return value:  Size  Location     Type
		None               void
 Registers used:
		wreg, fsr0l, fsr0h, fsr1l, fsr1h, status,2, status,0, pclath, cstack
 Tracked objects:
		On entry : 
		On exit  : 
		Unchanged: 
 Data sizes:     COMMON   BANK0   BANK1
      Params:         0       0       0
      Locals:         0       0       0
      Temps:          0       2       0
      Totals:         0       2       0
Total ram usage:        2 bytes
 Hardware stack levels used:    1
 Hardware stack levels required when called:    4
 This function calls:
		_Display_value
		_WaterLevel_Lookup
 This function is called by:
		_main
 This function uses a non-reentrant model


 *************** function _WaterLevel_Lookup *****************
 Defined at:
		line 21 in file "water_level_display/water_level_conversion.c"
 Parameters:    Size  Location     Type
  zeroSet         2    8[BANK0 ] unsigned int 
  stepLitre       1   10[BANK0 ] unsigned char 
 Auto vars:     Size  Location     Type
  waterLevelRe    2   15[BANK0 ] unsigned int 
  waterLevelLo    1   14[BANK0 ] unsigned char 
 Return value:  Size  Location     Type
                  1    wreg      unsigned char 
 Registers used:
		wreg, status,2, status,0, pclath, cstack
 Tracked objects:
		On entry : 
		On exit  : 
		Unchanged: 
 Data sizes:     COMMON   BANK0   BANK1
      Params:         0       3       0
      Locals:         0       3       0
      Temps:          0       3       0
      Totals:         0       9       0
Total ram usage:        9 bytes
 Hardware stack levels used:    1
 Hardware stack levels required when called:    2
 This function calls:
		_ReadWaterLevel
		___lwdiv
 This function is called by:
		_WaterLevelDisplay_StateMachine
 This function uses a non-reentrant model


 *************** function _ReadWaterLevel *****************
 Defined at:
		line 13 in file "water_level_display/water_level_conversion.c"
 Parameters:    Size  Location     Type
		None
 Auto vars:     Size  Location     Type
  adcValue        2    6[BANK0 ] unsigned int 
 Return value:  Size  Location     Type
                  2    0[BANK0 ] unsigned int 
 Registers used:
		wreg, status,2, status,0, pclath, cstack
 Tracked objects:
		On entry : 
		On exit  : 
		Unchanged: 
 Data sizes:     COMMON   BANK0   BANK1
      Params:         0       2       0
      Locals:         0       4       0
      Temps:          0       2       0
      Totals:         0       8       0
Total ram usage:        8 bytes
 Hardware stack levels used:    1
 Hardware stack levels required when called:    1
 This function calls:
		_ADC_GetConversion
		___lwdiv
		___wmul
 This function is called by:
		_WaterLevel_Lookup
 This function uses a non-reentrant model


 *************** function ___wmul *****************
 Defined at:
		line 15 in file "C:\Program Files (x86)\Microchip\xc8\v1.35\sources\common\Umul16.c"
 Parameters:    Size  Location     Type
  multiplier      2    0[COMMON] unsigned int 
  multiplicand    2    2[COMMON] unsigned int 
 Auto vars:     Size  Location     Type
  product         2    4[COMMON] unsigned int 
 Return value:  Size  Location     Type
                  2    0[COMMON] unsigned int 
 Registers used:
		wreg, status,2, status,0
 Tracked objects:
		On entry : 
		On exit  : 
		Unchanged: 
 Data sizes:     COMMON   BANK0   BANK1
      Params:         4       0       0
      Locals:         2       0       0
      Temps:          0       0       0
      Totals:         6       0       0
Total ram usage:        6 bytes
 Hardware stack levels used:    1
 This function calls:
		Nothing
 This function is called by:
		_ReadWaterLevel
 This function uses a non-reentrant model


 *************** function _ADC_GetConversion *****************
 Defined at:
		line 109 in file "mcc_generated_files/adc.c"
 Parameters:    Size  Location     Type
  channel         1    wreg     enum E2933
 Auto vars:     Size  Location     Type
  channel         1    3[COMMON] enum E2933
 Return value:  Size  Location     Type
                  2    0[COMMON] unsigned int 
 Registers used:
		wreg, status,2, status,0
 Tracked objects:
		On entry : 
		On exit  : 
		Unchanged: 
 Data sizes:     COMMON   BANK0   BANK1
      Params:         2       0       0
      Locals:         1       0       0
      Temps:          1       0       0
      Totals:         4       0       0
Total ram usage:        4 bytes
 Hardware stack levels used:    1
 This function calls:
		Nothing
 This function is called by:
		_ReadWaterLevel
 This function uses a non-reentrant model


 *************** function _Display_value *****************
 Defined at:
		line 11 in file "drv_74hc595/drv_74hc595.c"
 Parameters:    Size  Location     Type
  value           2   16[BANK0 ] unsigned int 
 Auto vars:     Size  Location     Type
  numChar         6   26[BANK0 ] unsigned char [6]
  myBuffer        6   20[BANK0 ] unsigned char [6]
  number          2   32[BANK0 ] unsigned int 
  i               1   34[BANK0 ] unsigned char 
 Return value:  Size  Location     Type
		None               void
 Registers used:
		wreg, fsr0l, fsr0h, fsr1l, fsr1h, status,2, status,0, pclath, cstack
 Tracked objects:
		On entry : 
		On exit  : 
		Unchanged: 
 Data sizes:     COMMON   BANK0   BANK1
      Params:         0       2       0
      Locals:         0      15       0
      Temps:          0       2       0
      Totals:         0      19       0
Total ram usage:       19 bytes
 Hardware stack levels used:    1
 Hardware stack levels required when called:    3
 This function calls:
		_Display_put
		_GetStringReverse
		_itoa
 This function is called by:
		_WaterLevelDisplay_StateMachine
 This function uses a non-reentrant model


 *************** function _itoa *****************
 Defined at:
		line 4 in file "C:\Program Files (x86)\Microchip\xc8\v1.35\sources\common\itoa.c"
 Parameters:    Size  Location     Type
  buf             1    wreg     PTR unsigned char 
		 -> Display_value@myBuffer(6), 
  val             2    9[BANK0 ] int 
  base            2   11[BANK0 ] int 
 Auto vars:     Size  Location     Type
  buf             1   15[BANK0 ] PTR unsigned char 
		 -> Display_value@myBuffer(6), 
  cp              1   14[BANK0 ] PTR unsigned char 
		 -> Display_value@myBuffer(6), 
 Return value:  Size  Location     Type
                  1    wreg      PTR unsigned char 
 Registers used:
		wreg, fsr1l, fsr1h, status,2, status,0, pclath, cstack
 Tracked objects:
		On entry : 
		On exit  : 
		Unchanged: 
 Data sizes:     COMMON   BANK0   BANK1
      Params:         0       4       0
      Locals:         0       2       0
      Temps:          0       1       0
      Totals:         0       7       0
Total ram usage:        7 bytes
 Hardware stack levels used:    1
 Hardware stack levels required when called:    2
 This function calls:
		_utoa
 This function is called by:
		_Display_value
 This function uses a non-reentrant model


 *************** function _utoa *****************
 Defined at:
		line 17 in file "C:\Program Files (x86)\Microchip\xc8\v1.35\sources\common\itoa.c"
 Parameters:    Size  Location     Type
  buf             1    wreg     PTR unsigned char 
		 -> Display_value@myBuffer(6), 
  val             2    0[BANK0 ] unsigned int 
  base            2    2[BANK0 ] int 
 Auto vars:     Size  Location     Type
  buf             1    8[BANK0 ] PTR unsigned char 
		 -> Display_value@myBuffer(6), 
  v               2    5[BANK0 ] unsigned int 
  c               1    7[BANK0 ] unsigned char 
 Return value:  Size  Location     Type
                  1    wreg      PTR unsigned char 
 Registers used:
		wreg, fsr1l, fsr1h, status,2, status,0, pclath, cstack
 Tracked objects:
		On entry : 
		On exit  : 
		Unchanged: 
 Data sizes:     COMMON   BANK0   BANK1
      Params:         0       4       0
      Locals:         0       4       0
      Temps:          0       1       0
      Totals:         0       9       0
Total ram usage:        9 bytes
 Hardware stack levels used:    1
 Hardware stack levels required when called:    1
 This function calls:
		___lwdiv
		___lwmod
 This function is called by:
		_itoa
 This function uses a non-reentrant model


 *************** function ___lwmod *****************
 Defined at:
		line 6 in file "C:\Program Files (x86)\Microchip\xc8\v1.35\sources\common\lwmod.c"
 Parameters:    Size  Location     Type
  divisor         2    0[COMMON] unsigned int 
  dividend        2    2[COMMON] unsigned int 
 Auto vars:     Size  Location     Type
  counter         1    5[COMMON] unsigned char 
 Return value:  Size  Location     Type
                  2    0[COMMON] unsigned int 
 Registers used:
		wreg, status,2, status,0
 Tracked objects:
		On entry : 
		On exit  : 
		Unchanged: 
 Data sizes:     COMMON   BANK0   BANK1
      Params:         4       0       0
      Locals:         1       0       0
      Temps:          1       0       0
      Totals:         6       0       0
Total ram usage:        6 bytes
 Hardware stack levels used:    1
 This function calls:
		Nothing
 This function is called by:
		_utoa
 This function uses a non-reentrant model


 *************** function ___lwdiv *****************
 Defined at:
		line 6 in file "C:\Program Files (x86)\Microchip\xc8\v1.35\sources\common\lwdiv.c"
 Parameters:    Size  Location     Type
  divisor         2    6[COMMON] unsigned int 
  dividend        2    8[COMMON] unsigned int 
 Auto vars:     Size  Location     Type
  quotient        2   11[COMMON] unsigned int 
  counter         1   13[COMMON] unsigned char 
 Return value:  Size  Location     Type
                  2    6[COMMON] unsigned int 
 Registers used:
		wreg, status,2, status,0
 Tracked objects:
		On entry : 
		On exit  : 
		Unchanged: 
 Data sizes:     COMMON   BANK0   BANK1
      Params:         4       0       0
      Locals:         3       0       0
      Temps:          1       0       0
      Totals:         8       0       0
Total ram usage:        8 bytes
 Hardware stack levels used:    1
 This function calls:
		Nothing
 This function is called by:
		_ReadWaterLevel
		_WaterLevel_Lookup
		_utoa
 This function uses a non-reentrant model


 *************** function _GetStringReverse *****************
 Defined at:
		line 59 in file "drv_74hc595/drv_74hc595.c"
 Parameters:    Size  Location     Type
  str             1    wreg     PTR unsigned char 
		 -> Display_value@myBuffer(6), 
  buff            1    0[COMMON] PTR unsigned char 
		 -> Display_value@numChar(6), 
 Auto vars:     Size  Location     Type
  str             1    2[COMMON] PTR unsigned char 
		 -> Display_value@myBuffer(6), 
  i               2    3[COMMON] int 
  sptr            1    6[COMMON] PTR unsigned char 
		 -> Display_value@myBuffer(6), 
  rptr            1    5[COMMON] PTR unsigned char 
		 -> Display_value@numChar(6), 
 Return value:  Size  Location     Type
		None               void
 Registers used:
		wreg, fsr1l, fsr1h, status,2, status,0
 Tracked objects:
		On entry : 
		On exit  : 
		Unchanged: 
 Data sizes:     COMMON   BANK0   BANK1
      Params:         1       0       0
      Locals:         5       0       0
      Temps:          1       0       0
      Totals:         7       0       0
Total ram usage:        7 bytes
 Hardware stack levels used:    1
 This function calls:
		Nothing
 This function is called by:
		_Display_value
 This function uses a non-reentrant model


 *************** function _Display_put *****************
 Defined at:
		line 35 in file "drv_74hc595/drv_74hc595.c"
 Parameters:    Size  Location     Type
  dig             2    0[COMMON] PTR unsigned char 
		 -> NULL(0), RAM(4096), RAM(4096), 
 Auto vars:     Size  Location     Type
  i               1    5[COMMON] unsigned char 
  digit           1    4[COMMON] unsigned char 
 Return value:  Size  Location     Type
		None               void
 Registers used:
		wreg, fsr0l, fsr0h, status,2, status,0, pclath
 Tracked objects:
		On entry : 
		On exit  : 
		Unchanged: 
 Data sizes:     COMMON   BANK0   BANK1
      Params:         2       0       0
      Locals:         2       0       0
      Temps:          2       0       0
      Totals:         6       0       0
Total ram usage:        6 bytes
 Hardware stack levels used:    1
 This function calls:
		Nothing
 This function is called by:
		_Display_value
 This function uses a non-reentrant model


 *************** function _SYSTEM_Initialize *****************
 Defined at:
		line 67 in file "mcc_generated_files/mcc.c"
 Parameters:    Size  Location     Type
		None
 Auto vars:     Size  Location     Type
		None
 Return value:  Size  Location     Type
		None               void
 Registers used:
		wreg, status,2, status,0, pclath, cstack
 Tracked objects:
		On entry : 
		On exit  : 
		Unchanged: 
 Data sizes:     COMMON   BANK0   BANK1
      Params:         0       0       0
      Locals:         0       0       0
      Temps:          0       0       0
      Totals:         0       0       0
Total ram usage:        0 bytes
 Hardware stack levels used:    1
 Hardware stack levels required when called:    1
 This function calls:
		_ADC_Initialize
		_OSCILLATOR_Initialize
		_PIN_MANAGER_Initialize
 This function is called by:
		_main
 This function uses a non-reentrant model


 *************** function _PIN_MANAGER_Initialize *****************
 Defined at:
		line 50 in file "mcc_generated_files/pin_manager.c"
 Parameters:    Size  Location     Type
		None
 Auto vars:     Size  Location     Type
		None
 Return value:  Size  Location     Type
		None               void
 Registers used:
		wreg, status,2
 Tracked objects:
		On entry : 
		On exit  : 
		Unchanged: 
 Data sizes:     COMMON   BANK0   BANK1
      Params:         0       0       0
      Locals:         0       0       0
      Temps:          0       0       0
      Totals:         0       0       0
Total ram usage:        0 bytes
 Hardware stack levels used:    1
 This function calls:
		Nothing
 This function is called by:
		_SYSTEM_Initialize
 This function uses a non-reentrant model


 *************** function _OSCILLATOR_Initialize *****************
 Defined at:
		line 73 in file "mcc_generated_files/mcc.c"
 Parameters:    Size  Location     Type
		None
 Auto vars:     Size  Location     Type
		None
 Return value:  Size  Location     Type
		None               void
 Registers used:
		wreg, status,2
 Tracked objects:
		On entry : 
		On exit  : 
		Unchanged: 
 Data sizes:     COMMON   BANK0   BANK1
      Params:         0       0       0
      Locals:         0       0       0
      Temps:          0       0       0
      Totals:         0       0       0
Total ram usage:        0 bytes
 Hardware stack levels used:    1
 This function calls:
		Nothing
 This function is called by:
		_SYSTEM_Initialize
 This function uses a non-reentrant model


 *************** function _ADC_Initialize *****************
 Defined at:
		line 65 in file "mcc_generated_files/adc.c"
 Parameters:    Size  Location     Type
		None
 Auto vars:     Size  Location     Type
		None
 Return value:  Size  Location     Type
		None               void
 Registers used:
		wreg, status,2
 Tracked objects:
		On entry : 
		On exit  : 
		Unchanged: 
 Data sizes:     COMMON   BANK0   BANK1
      Params:         0       0       0
      Locals:         0       0       0
      Temps:          0       0       0
      Totals:         0       0       0
Total ram usage:        0 bytes
 Hardware stack levels used:    1
 This function calls:
		Nothing
 This function is called by:
		_SYSTEM_Initialize
 This function uses a non-reentrant model



MODULE INFORMATION

Module		Function		Class		Link	Load	Size
mcc_generated_files/pin_manager.c
		_PIN_MANAGER_Initialize		CODE           	0399	0000	25

mcc_generated_files/pin_manager.c estimated size: 25

mcc_generated_files/adc.c
		_ADC_Initialize		CODE           	0390	0000	10
		_ADC_GetConversion		CODE           	03B1	0000	27

mcc_generated_files/adc.c estimated size: 37

drv_74hc595/drv_74hc595.c
		_GetStringReverse		CODE           	04C8	0000	63
		_Display_put   		CODE           	0493	0000	54
		_Display_value 		CODE           	05F9	0000	101

drv_74hc595/drv_74hc595.c estimated size: 218

C:\Program Files (x86)\Microchip\xc8\v1.35\sources\common\lwmod.c
		___lwmod       		CODE           	0433	0000	45

C:\Program Files (x86)\Microchip\xc8\v1.35\sources\common\lwmod.c estimated size: 45

water_level_display/water_level_display.c
		_WaterLevelDisplay_StateMachine		CODE           	0506	0000	73

water_level_display/water_level_display.c estimated size: 73

shared
		_WaterLevelLookup		STRCODE        	065D	0000	401
		__initialization		CODE           	07F8	0000	7
		Display_put@display_segment		STRCODE        	07ED	0000	12

shared estimated size: 420

mcc_generated_files/mcc.c
		_OSCILLATOR_Initialize		CODE           	0385	0000	6
		_SYSTEM_Initialize		CODE           	0381	0000	5

mcc_generated_files/mcc.c estimated size: 11

water_level_display/water_level_conversion.c
		_ReadWaterLevel		CODE           	054E	0000	80
		_WaterLevel_Lookup		CODE           	0409	0000	43

water_level_display/water_level_conversion.c estimated size: 123

C:\Program Files (x86)\Microchip\xc8\v1.35\sources\common\itoa.c
		_itoa          		CODE           	03E6	0000	36
		_utoa          		CODE           	059D	0000	93

C:\Program Files (x86)\Microchip\xc8\v1.35\sources\common\itoa.c estimated size: 129

C:\Program Files (x86)\Microchip\xc8\v1.35\sources\common\lwdiv.c
		___lwdiv       		CODE           	045F	0000	53

C:\Program Files (x86)\Microchip\xc8\v1.35\sources\common\lwdiv.c estimated size: 53

C:\Program Files (x86)\Microchip\xc8\v1.35\sources\common\Umul16.c
		___wmul        		CODE           	03CB	0000	28

C:\Program Files (x86)\Microchip\xc8\v1.35\sources\common\Umul16.c estimated size: 28

main.c
		_main          		CODE           	037E	0000	4

main.c estimated size: 4

